
kernel.bin：     文件格式 elf32-i386


Disassembly of section .text:

c0001500 <main>:
c0001500:	55                   	push   %ebp
c0001501:	89 e5                	mov    %esp,%ebp
c0001503:	83 e4 f0             	and    $0xfffffff0,%esp
c0001506:	83 ec 10             	sub    $0x10,%esp
c0001509:	c7 04 24 00 50 00 c0 	movl   $0xc0005000,(%esp)
c0001510:	e8 9b 0c 00 00       	call   c00021b0 <put_str>
c0001515:	e8 25 01 00 00       	call   c000163f <init_all>
c000151a:	c7 04 24 0d 50 00 c0 	movl   $0xc000500d,(%esp)
c0001521:	e8 8a 0c 00 00       	call   c00021b0 <put_str>
c0001526:	c7 44 24 0c 22 50 00 	movl   $0xc0005022,0xc(%esp)
c000152d:	c0 
c000152e:	c7 44 24 08 cd 15 00 	movl   $0xc00015cd,0x8(%esp)
c0001535:	c0 
c0001536:	c7 44 24 04 1f 00 00 	movl   $0x1f,0x4(%esp)
c000153d:	00 
c000153e:	c7 04 24 28 50 00 c0 	movl   $0xc0005028,(%esp)
c0001545:	e8 94 1e 00 00       	call   c00033de <thread_start>
c000154a:	c7 04 24 33 50 00 c0 	movl   $0xc0005033,(%esp)
c0001551:	e8 5a 0c 00 00       	call   c00021b0 <put_str>
c0001556:	c7 44 24 0c 4d 50 00 	movl   $0xc000504d,0xc(%esp)
c000155d:	c0 
c000155e:	c7 44 24 08 f4 15 00 	movl   $0xc00015f4,0x8(%esp)
c0001565:	c0 
c0001566:	c7 44 24 04 1f 00 00 	movl   $0x1f,0x4(%esp)
c000156d:	00 
c000156e:	c7 04 24 53 50 00 c0 	movl   $0xc0005053,(%esp)
c0001575:	e8 64 1e 00 00       	call   c00033de <thread_start>
c000157a:	c7 04 24 5e 50 00 c0 	movl   $0xc000505e,(%esp)
c0001581:	e8 2a 0c 00 00       	call   c00021b0 <put_str>
c0001586:	c7 44 24 04 74 50 00 	movl   $0xc0005074,0x4(%esp)
c000158d:	c0 
c000158e:	c7 04 24 1b 16 00 c0 	movl   $0xc000161b,(%esp)
c0001595:	e8 47 32 00 00       	call   c00047e1 <process_execute>
c000159a:	c7 04 24 80 50 00 c0 	movl   $0xc0005080,(%esp)
c00015a1:	e8 0a 0c 00 00       	call   c00021b0 <put_str>
c00015a6:	c7 44 24 04 97 50 00 	movl   $0xc0005097,0x4(%esp)
c00015ad:	c0 
c00015ae:	c7 04 24 2d 16 00 c0 	movl   $0xc000162d,(%esp)
c00015b5:	e8 27 32 00 00       	call   c00047e1 <process_execute>
c00015ba:	c7 04 24 a3 50 00 c0 	movl   $0xc00050a3,(%esp)
c00015c1:	e8 ea 0b 00 00       	call   c00021b0 <put_str>
c00015c6:	e8 f2 03 00 00       	call   c00019bd <intr_enable>
c00015cb:	eb fe                	jmp    c00015cb <main+0xcb>

c00015cd <k_thread_a>:
c00015cd:	55                   	push   %ebp
c00015ce:	89 e5                	mov    %esp,%ebp
c00015d0:	83 ec 28             	sub    $0x28,%esp
c00015d3:	8b 45 08             	mov    0x8(%ebp),%eax
c00015d6:	89 45 f4             	mov    %eax,-0xc(%ebp)
c00015d9:	c7 04 24 ba 50 00 c0 	movl   $0xc00050ba,(%esp)
c00015e0:	e8 8c 24 00 00       	call   c0003a71 <console_put_str>
c00015e5:	a1 60 81 00 c0       	mov    0xc0008160,%eax
c00015ea:	89 04 24             	mov    %eax,(%esp)
c00015ed:	e8 c0 24 00 00       	call   c0003ab2 <console_put_int>
c00015f2:	eb e5                	jmp    c00015d9 <k_thread_a+0xc>

c00015f4 <k_thread_b>:
c00015f4:	55                   	push   %ebp
c00015f5:	89 e5                	mov    %esp,%ebp
c00015f7:	83 ec 28             	sub    $0x28,%esp
c00015fa:	8b 45 08             	mov    0x8(%ebp),%eax
c00015fd:	89 45 f4             	mov    %eax,-0xc(%ebp)
c0001600:	c7 04 24 c2 50 00 c0 	movl   $0xc00050c2,(%esp)
c0001607:	e8 65 24 00 00       	call   c0003a71 <console_put_str>
c000160c:	a1 64 81 00 c0       	mov    0xc0008164,%eax
c0001611:	89 04 24             	mov    %eax,(%esp)
c0001614:	e8 99 24 00 00       	call   c0003ab2 <console_put_int>
c0001619:	eb e5                	jmp    c0001600 <k_thread_b+0xc>

c000161b <u_prog_a>:
c000161b:	55                   	push   %ebp
c000161c:	89 e5                	mov    %esp,%ebp
c000161e:	a1 60 81 00 c0       	mov    0xc0008160,%eax
c0001623:	83 c0 01             	add    $0x1,%eax
c0001626:	a3 60 81 00 c0       	mov    %eax,0xc0008160
c000162b:	eb f1                	jmp    c000161e <u_prog_a+0x3>

c000162d <u_prog_b>:
c000162d:	55                   	push   %ebp
c000162e:	89 e5                	mov    %esp,%ebp
c0001630:	a1 64 81 00 c0       	mov    0xc0008164,%eax
c0001635:	83 c0 01             	add    $0x1,%eax
c0001638:	a3 64 81 00 c0       	mov    %eax,0xc0008164
c000163d:	eb f1                	jmp    c0001630 <u_prog_b+0x3>

c000163f <init_all>:
c000163f:	55                   	push   %ebp
c0001640:	89 e5                	mov    %esp,%ebp
c0001642:	83 ec 18             	sub    $0x18,%esp
c0001645:	c7 04 24 ca 50 00 c0 	movl   $0xc00050ca,(%esp)
c000164c:	e8 5f 0b 00 00       	call   c00021b0 <put_str>
c0001651:	e8 1c 04 00 00       	call   c0001a72 <idt_init>
c0001656:	e8 48 15 00 00       	call   c0002ba3 <mem_init>
c000165b:	e8 9e 21 00 00       	call   c00037fe <thread_init>
c0001660:	e8 a0 05 00 00       	call   c0001c05 <timer_init>
c0001665:	e8 cb 23 00 00       	call   c0003a35 <console_init>
c000166a:	e8 5c 2a 00 00       	call   c00040cb <keyboard_init>
c000166f:	e8 04 2e 00 00       	call   c0004478 <tss_init>
c0001674:	c9                   	leave  
c0001675:	c3                   	ret    

c0001676 <outb>:
c0001676:	55                   	push   %ebp
c0001677:	89 e5                	mov    %esp,%ebp
c0001679:	83 ec 08             	sub    $0x8,%esp
c000167c:	8b 55 08             	mov    0x8(%ebp),%edx
c000167f:	8b 45 0c             	mov    0xc(%ebp),%eax
c0001682:	66 89 55 fc          	mov    %dx,-0x4(%ebp)
c0001686:	88 45 f8             	mov    %al,-0x8(%ebp)
c0001689:	0f b6 45 f8          	movzbl -0x8(%ebp),%eax
c000168d:	0f b7 55 fc          	movzwl -0x4(%ebp),%edx
c0001691:	ee                   	out    %al,(%dx)
c0001692:	c9                   	leave  
c0001693:	c3                   	ret    

c0001694 <pic_init>:
c0001694:	55                   	push   %ebp
c0001695:	89 e5                	mov    %esp,%ebp
c0001697:	83 ec 18             	sub    $0x18,%esp
c000169a:	c7 44 24 04 11 00 00 	movl   $0x11,0x4(%esp)
c00016a1:	00 
c00016a2:	c7 04 24 20 00 00 00 	movl   $0x20,(%esp)
c00016a9:	e8 c8 ff ff ff       	call   c0001676 <outb>
c00016ae:	c7 44 24 04 20 00 00 	movl   $0x20,0x4(%esp)
c00016b5:	00 
c00016b6:	c7 04 24 21 00 00 00 	movl   $0x21,(%esp)
c00016bd:	e8 b4 ff ff ff       	call   c0001676 <outb>
c00016c2:	c7 44 24 04 04 00 00 	movl   $0x4,0x4(%esp)
c00016c9:	00 
c00016ca:	c7 04 24 21 00 00 00 	movl   $0x21,(%esp)
c00016d1:	e8 a0 ff ff ff       	call   c0001676 <outb>
c00016d6:	c7 44 24 04 01 00 00 	movl   $0x1,0x4(%esp)
c00016dd:	00 
c00016de:	c7 04 24 21 00 00 00 	movl   $0x21,(%esp)
c00016e5:	e8 8c ff ff ff       	call   c0001676 <outb>
c00016ea:	c7 44 24 04 11 00 00 	movl   $0x11,0x4(%esp)
c00016f1:	00 
c00016f2:	c7 04 24 a0 00 00 00 	movl   $0xa0,(%esp)
c00016f9:	e8 78 ff ff ff       	call   c0001676 <outb>
c00016fe:	c7 44 24 04 28 00 00 	movl   $0x28,0x4(%esp)
c0001705:	00 
c0001706:	c7 04 24 a1 00 00 00 	movl   $0xa1,(%esp)
c000170d:	e8 64 ff ff ff       	call   c0001676 <outb>
c0001712:	c7 44 24 04 02 00 00 	movl   $0x2,0x4(%esp)
c0001719:	00 
c000171a:	c7 04 24 a1 00 00 00 	movl   $0xa1,(%esp)
c0001721:	e8 50 ff ff ff       	call   c0001676 <outb>
c0001726:	c7 44 24 04 01 00 00 	movl   $0x1,0x4(%esp)
c000172d:	00 
c000172e:	c7 04 24 a1 00 00 00 	movl   $0xa1,(%esp)
c0001735:	e8 3c ff ff ff       	call   c0001676 <outb>
c000173a:	c7 44 24 04 fc 00 00 	movl   $0xfc,0x4(%esp)
c0001741:	00 
c0001742:	c7 04 24 21 00 00 00 	movl   $0x21,(%esp)
c0001749:	e8 28 ff ff ff       	call   c0001676 <outb>
c000174e:	c7 44 24 04 ff 00 00 	movl   $0xff,0x4(%esp)
c0001755:	00 
c0001756:	c7 04 24 a1 00 00 00 	movl   $0xa1,(%esp)
c000175d:	e8 14 ff ff ff       	call   c0001676 <outb>
c0001762:	c7 04 24 d4 50 00 c0 	movl   $0xc00050d4,(%esp)
c0001769:	e8 42 0a 00 00       	call   c00021b0 <put_str>
c000176e:	c9                   	leave  
c000176f:	c3                   	ret    

c0001770 <make_idt_desc>:
c0001770:	55                   	push   %ebp
c0001771:	89 e5                	mov    %esp,%ebp
c0001773:	83 ec 04             	sub    $0x4,%esp
c0001776:	8b 45 0c             	mov    0xc(%ebp),%eax
c0001779:	88 45 fc             	mov    %al,-0x4(%ebp)
c000177c:	8b 45 10             	mov    0x10(%ebp),%eax
c000177f:	89 c2                	mov    %eax,%edx
c0001781:	8b 45 08             	mov    0x8(%ebp),%eax
c0001784:	66 89 10             	mov    %dx,(%eax)
c0001787:	8b 45 08             	mov    0x8(%ebp),%eax
c000178a:	66 c7 40 02 08 00    	movw   $0x8,0x2(%eax)
c0001790:	8b 45 08             	mov    0x8(%ebp),%eax
c0001793:	c6 40 04 00          	movb   $0x0,0x4(%eax)
c0001797:	8b 45 08             	mov    0x8(%ebp),%eax
c000179a:	0f b6 55 fc          	movzbl -0x4(%ebp),%edx
c000179e:	88 50 05             	mov    %dl,0x5(%eax)
c00017a1:	8b 45 10             	mov    0x10(%ebp),%eax
c00017a4:	c1 e8 10             	shr    $0x10,%eax
c00017a7:	89 c2                	mov    %eax,%edx
c00017a9:	8b 45 08             	mov    0x8(%ebp),%eax
c00017ac:	66 89 50 06          	mov    %dx,0x6(%eax)
c00017b0:	c9                   	leave  
c00017b1:	c3                   	ret    

c00017b2 <idt_desc_init>:
c00017b2:	55                   	push   %ebp
c00017b3:	89 e5                	mov    %esp,%ebp
c00017b5:	83 ec 28             	sub    $0x28,%esp
c00017b8:	c7 45 f4 00 00 00 00 	movl   $0x0,-0xc(%ebp)
c00017bf:	eb 2e                	jmp    c00017ef <idt_desc_init+0x3d>
c00017c1:	8b 45 f4             	mov    -0xc(%ebp),%eax
c00017c4:	8b 04 85 00 80 00 c0 	mov    -0x3fff8000(,%eax,4),%eax
c00017cb:	8b 55 f4             	mov    -0xc(%ebp),%edx
c00017ce:	c1 e2 03             	shl    $0x3,%edx
c00017d1:	81 c2 80 81 00 c0    	add    $0xc0008180,%edx
c00017d7:	89 44 24 08          	mov    %eax,0x8(%esp)
c00017db:	c7 44 24 04 8e 00 00 	movl   $0x8e,0x4(%esp)
c00017e2:	00 
c00017e3:	89 14 24             	mov    %edx,(%esp)
c00017e6:	e8 85 ff ff ff       	call   c0001770 <make_idt_desc>
c00017eb:	83 45 f4 01          	addl   $0x1,-0xc(%ebp)
c00017ef:	83 7d f4 2f          	cmpl   $0x2f,-0xc(%ebp)
c00017f3:	7e cc                	jle    c00017c1 <idt_desc_init+0xf>
c00017f5:	c7 04 24 e6 50 00 c0 	movl   $0xc00050e6,(%esp)
c00017fc:	e8 af 09 00 00       	call   c00021b0 <put_str>
c0001801:	c9                   	leave  
c0001802:	c3                   	ret    

c0001803 <general_intr_handler>:
c0001803:	55                   	push   %ebp
c0001804:	89 e5                	mov    %esp,%ebp
c0001806:	53                   	push   %ebx
c0001807:	83 ec 34             	sub    $0x34,%esp
c000180a:	8b 45 08             	mov    0x8(%ebp),%eax
c000180d:	88 45 e4             	mov    %al,-0x1c(%ebp)
c0001810:	80 7d e4 27          	cmpb   $0x27,-0x1c(%ebp)
c0001814:	0f 84 a7 00 00 00    	je     c00018c1 <general_intr_handler+0xbe>
c000181a:	80 7d e4 2f          	cmpb   $0x2f,-0x1c(%ebp)
c000181e:	0f 84 9d 00 00 00    	je     c00018c1 <general_intr_handler+0xbe>
c0001824:	c7 04 24 00 00 00 00 	movl   $0x0,(%esp)
c000182b:	e8 ce 0a 00 00       	call   c00022fe <set_cursor>
c0001830:	c7 45 f4 00 00 00 00 	movl   $0x0,-0xc(%ebp)
c0001837:	eb 10                	jmp    c0001849 <general_intr_handler+0x46>
c0001839:	c7 04 24 20 00 00 00 	movl   $0x20,(%esp)
c0001840:	e8 89 09 00 00       	call   c00021ce <put_char>
c0001845:	83 45 f4 01          	addl   $0x1,-0xc(%ebp)
c0001849:	81 7d f4 3f 01 00 00 	cmpl   $0x13f,-0xc(%ebp)
c0001850:	7e e7                	jle    c0001839 <general_intr_handler+0x36>
c0001852:	c7 04 24 00 00 00 00 	movl   $0x0,(%esp)
c0001859:	e8 a0 0a 00 00       	call   c00022fe <set_cursor>
c000185e:	c7 04 24 00 51 00 c0 	movl   $0xc0005100,(%esp)
c0001865:	e8 46 09 00 00       	call   c00021b0 <put_str>
c000186a:	c7 04 24 58 00 00 00 	movl   $0x58,(%esp)
c0001871:	e8 88 0a 00 00       	call   c00022fe <set_cursor>
c0001876:	0f b6 45 e4          	movzbl -0x1c(%ebp),%eax
c000187a:	8b 04 85 c0 83 00 c0 	mov    -0x3fff7c40(,%eax,4),%eax
c0001881:	89 04 24             	mov    %eax,(%esp)
c0001884:	e8 27 09 00 00       	call   c00021b0 <put_str>
c0001889:	80 7d e4 0e          	cmpb   $0xe,-0x1c(%ebp)
c000188d:	75 24                	jne    c00018b3 <general_intr_handler+0xb0>
c000188f:	c7 45 f0 00 00 00 00 	movl   $0x0,-0x10(%ebp)
c0001896:	0f 20 d3             	mov    %cr2,%ebx
c0001899:	89 5d f0             	mov    %ebx,-0x10(%ebp)
c000189c:	c7 04 24 2f 51 00 c0 	movl   $0xc000512f,(%esp)
c00018a3:	e8 08 09 00 00       	call   c00021b0 <put_str>
c00018a8:	8b 45 f0             	mov    -0x10(%ebp),%eax
c00018ab:	89 04 24             	mov    %eax,(%esp)
c00018ae:	e8 e8 09 00 00       	call   c000229b <put_int>
c00018b3:	c7 04 24 44 51 00 c0 	movl   $0xc0005144,(%esp)
c00018ba:	e8 f1 08 00 00       	call   c00021b0 <put_str>
c00018bf:	eb fe                	jmp    c00018bf <general_intr_handler+0xbc>
c00018c1:	90                   	nop
c00018c2:	83 c4 34             	add    $0x34,%esp
c00018c5:	5b                   	pop    %ebx
c00018c6:	5d                   	pop    %ebp
c00018c7:	c3                   	ret    

c00018c8 <exception_init>:
c00018c8:	55                   	push   %ebp
c00018c9:	89 e5                	mov    %esp,%ebp
c00018cb:	83 ec 10             	sub    $0x10,%esp
c00018ce:	c7 45 fc 00 00 00 00 	movl   $0x0,-0x4(%ebp)
c00018d5:	eb 20                	jmp    c00018f7 <exception_init+0x2f>
c00018d7:	8b 45 fc             	mov    -0x4(%ebp),%eax
c00018da:	c7 04 85 80 84 00 c0 	movl   $0xc0001803,-0x3fff7b80(,%eax,4)
c00018e1:	03 18 00 c0 
c00018e5:	8b 45 fc             	mov    -0x4(%ebp),%eax
c00018e8:	c7 04 85 c0 83 00 c0 	movl   $0xc0005174,-0x3fff7c40(,%eax,4)
c00018ef:	74 51 00 c0 
c00018f3:	83 45 fc 01          	addl   $0x1,-0x4(%ebp)
c00018f7:	83 7d fc 2f          	cmpl   $0x2f,-0x4(%ebp)
c00018fb:	7e da                	jle    c00018d7 <exception_init+0xf>
c00018fd:	c7 05 c0 83 00 c0 7c 	movl   $0xc000517c,0xc00083c0
c0001904:	51 00 c0 
c0001907:	c7 05 c4 83 00 c0 8d 	movl   $0xc000518d,0xc00083c4
c000190e:	51 00 c0 
c0001911:	c7 05 c8 83 00 c0 a1 	movl   $0xc00051a1,0xc00083c8
c0001918:	51 00 c0 
c000191b:	c7 05 cc 83 00 c0 af 	movl   $0xc00051af,0xc00083cc
c0001922:	51 00 c0 
c0001925:	c7 05 d0 83 00 c0 c8 	movl   $0xc00051c8,0xc00083d0
c000192c:	51 00 c0 
c000192f:	c7 05 d4 83 00 c0 e0 	movl   $0xc00051e0,0xc00083d4
c0001936:	51 00 c0 
c0001939:	c7 05 d8 83 00 c0 03 	movl   $0xc0005203,0xc00083d8
c0001940:	52 00 c0 
c0001943:	c7 05 dc 83 00 c0 20 	movl   $0xc0005220,0xc00083dc
c000194a:	52 00 c0 
c000194d:	c7 05 e0 83 00 c0 43 	movl   $0xc0005243,0xc00083e0
c0001954:	52 00 c0 
c0001957:	c7 05 e4 83 00 c0 5e 	movl   $0xc000525e,0xc00083e4
c000195e:	52 00 c0 
c0001961:	c7 05 e8 83 00 c0 7a 	movl   $0xc000527a,0xc00083e8
c0001968:	52 00 c0 
c000196b:	c7 05 ec 83 00 c0 94 	movl   $0xc0005294,0xc00083ec
c0001972:	52 00 c0 
c0001975:	c7 05 f0 83 00 c0 ac 	movl   $0xc00052ac,0xc00083f0
c000197c:	52 00 c0 
c000197f:	c7 05 f4 83 00 c0 c8 	movl   $0xc00052c8,0xc00083f4
c0001986:	52 00 c0 
c0001989:	c7 05 f8 83 00 c0 e9 	movl   $0xc00052e9,0xc00083f8
c0001990:	52 00 c0 
c0001993:	c7 05 00 84 00 c0 04 	movl   $0xc0005304,0xc0008400
c000199a:	53 00 c0 
c000199d:	c7 05 04 84 00 c0 25 	movl   $0xc0005325,0xc0008404
c00019a4:	53 00 c0 
c00019a7:	c7 05 08 84 00 c0 43 	movl   $0xc0005343,0xc0008408
c00019ae:	53 00 c0 
c00019b1:	c7 05 0c 84 00 c0 60 	movl   $0xc0005360,0xc000840c
c00019b8:	53 00 c0 
c00019bb:	c9                   	leave  
c00019bc:	c3                   	ret    

c00019bd <intr_enable>:
c00019bd:	55                   	push   %ebp
c00019be:	89 e5                	mov    %esp,%ebp
c00019c0:	83 ec 18             	sub    $0x18,%esp
c00019c3:	e8 65 00 00 00       	call   c0001a2d <intr_get_status>
c00019c8:	83 f8 01             	cmp    $0x1,%eax
c00019cb:	75 0c                	jne    c00019d9 <intr_enable+0x1c>
c00019cd:	c7 45 f4 01 00 00 00 	movl   $0x1,-0xc(%ebp)
c00019d4:	8b 45 f4             	mov    -0xc(%ebp),%eax
c00019d7:	eb 0b                	jmp    c00019e4 <intr_enable+0x27>
c00019d9:	c7 45 f4 00 00 00 00 	movl   $0x0,-0xc(%ebp)
c00019e0:	fb                   	sti    
c00019e1:	8b 45 f4             	mov    -0xc(%ebp),%eax
c00019e4:	c9                   	leave  
c00019e5:	c3                   	ret    

c00019e6 <intr_disable>:
c00019e6:	55                   	push   %ebp
c00019e7:	89 e5                	mov    %esp,%ebp
c00019e9:	83 ec 18             	sub    $0x18,%esp
c00019ec:	e8 3c 00 00 00       	call   c0001a2d <intr_get_status>
c00019f1:	83 f8 01             	cmp    $0x1,%eax
c00019f4:	75 0d                	jne    c0001a03 <intr_disable+0x1d>
c00019f6:	c7 45 f4 01 00 00 00 	movl   $0x1,-0xc(%ebp)
c00019fd:	fa                   	cli    
c00019fe:	8b 45 f4             	mov    -0xc(%ebp),%eax
c0001a01:	eb 0a                	jmp    c0001a0d <intr_disable+0x27>
c0001a03:	c7 45 f4 00 00 00 00 	movl   $0x0,-0xc(%ebp)
c0001a0a:	8b 45 f4             	mov    -0xc(%ebp),%eax
c0001a0d:	c9                   	leave  
c0001a0e:	c3                   	ret    

c0001a0f <intr_set_status>:
c0001a0f:	55                   	push   %ebp
c0001a10:	89 e5                	mov    %esp,%ebp
c0001a12:	83 ec 08             	sub    $0x8,%esp
c0001a15:	8b 45 08             	mov    0x8(%ebp),%eax
c0001a18:	83 e0 01             	and    $0x1,%eax
c0001a1b:	84 c0                	test   %al,%al
c0001a1d:	74 07                	je     c0001a26 <intr_set_status+0x17>
c0001a1f:	e8 99 ff ff ff       	call   c00019bd <intr_enable>
c0001a24:	eb 05                	jmp    c0001a2b <intr_set_status+0x1c>
c0001a26:	e8 bb ff ff ff       	call   c00019e6 <intr_disable>
c0001a2b:	c9                   	leave  
c0001a2c:	c3                   	ret    

c0001a2d <intr_get_status>:
c0001a2d:	55                   	push   %ebp
c0001a2e:	89 e5                	mov    %esp,%ebp
c0001a30:	53                   	push   %ebx
c0001a31:	83 ec 10             	sub    $0x10,%esp
c0001a34:	c7 45 f8 00 00 00 00 	movl   $0x0,-0x8(%ebp)
c0001a3b:	9c                   	pushf  
c0001a3c:	5b                   	pop    %ebx
c0001a3d:	89 5d f8             	mov    %ebx,-0x8(%ebp)
c0001a40:	8b 45 f8             	mov    -0x8(%ebp),%eax
c0001a43:	25 00 02 00 00       	and    $0x200,%eax
c0001a48:	85 c0                	test   %eax,%eax
c0001a4a:	0f 95 c0             	setne  %al
c0001a4d:	0f b6 c0             	movzbl %al,%eax
c0001a50:	83 c4 10             	add    $0x10,%esp
c0001a53:	5b                   	pop    %ebx
c0001a54:	5d                   	pop    %ebp
c0001a55:	c3                   	ret    

c0001a56 <register_handler>:
c0001a56:	55                   	push   %ebp
c0001a57:	89 e5                	mov    %esp,%ebp
c0001a59:	83 ec 04             	sub    $0x4,%esp
c0001a5c:	8b 45 08             	mov    0x8(%ebp),%eax
c0001a5f:	88 45 fc             	mov    %al,-0x4(%ebp)
c0001a62:	0f b6 45 fc          	movzbl -0x4(%ebp),%eax
c0001a66:	8b 55 0c             	mov    0xc(%ebp),%edx
c0001a69:	89 14 85 80 84 00 c0 	mov    %edx,-0x3fff7b80(,%eax,4)
c0001a70:	c9                   	leave  
c0001a71:	c3                   	ret    

c0001a72 <idt_init>:
c0001a72:	55                   	push   %ebp
c0001a73:	89 e5                	mov    %esp,%ebp
c0001a75:	56                   	push   %esi
c0001a76:	53                   	push   %ebx
c0001a77:	83 ec 20             	sub    $0x20,%esp
c0001a7a:	c7 04 24 82 53 00 c0 	movl   $0xc0005382,(%esp)
c0001a81:	e8 2a 07 00 00       	call   c00021b0 <put_str>
c0001a86:	e8 27 fd ff ff       	call   c00017b2 <idt_desc_init>
c0001a8b:	e8 38 fe ff ff       	call   c00018c8 <exception_init>
c0001a90:	e8 ff fb ff ff       	call   c0001694 <pic_init>
c0001a95:	b8 80 81 00 c0       	mov    $0xc0008180,%eax
c0001a9a:	ba 00 00 00 00       	mov    $0x0,%edx
c0001a9f:	0f a4 c2 10          	shld   $0x10,%eax,%edx
c0001aa3:	c1 e0 10             	shl    $0x10,%eax
c0001aa6:	89 c3                	mov    %eax,%ebx
c0001aa8:	81 cb 7f 01 00 00    	or     $0x17f,%ebx
c0001aae:	89 d6                	mov    %edx,%esi
c0001ab0:	83 ce 00             	or     $0x0,%esi
c0001ab3:	89 5d f0             	mov    %ebx,-0x10(%ebp)
c0001ab6:	89 75 f4             	mov    %esi,-0xc(%ebp)
c0001ab9:	0f 01 5d f0          	lidtl  -0x10(%ebp)
c0001abd:	c7 04 24 92 53 00 c0 	movl   $0xc0005392,(%esp)
c0001ac4:	e8 e7 06 00 00       	call   c00021b0 <put_str>
c0001ac9:	83 c4 20             	add    $0x20,%esp
c0001acc:	5b                   	pop    %ebx
c0001acd:	5e                   	pop    %esi
c0001ace:	5d                   	pop    %ebp
c0001acf:	c3                   	ret    

c0001ad0 <outb>:
c0001ad0:	55                   	push   %ebp
c0001ad1:	89 e5                	mov    %esp,%ebp
c0001ad3:	83 ec 08             	sub    $0x8,%esp
c0001ad6:	8b 55 08             	mov    0x8(%ebp),%edx
c0001ad9:	8b 45 0c             	mov    0xc(%ebp),%eax
c0001adc:	66 89 55 fc          	mov    %dx,-0x4(%ebp)
c0001ae0:	88 45 f8             	mov    %al,-0x8(%ebp)
c0001ae3:	0f b6 45 f8          	movzbl -0x8(%ebp),%eax
c0001ae7:	0f b7 55 fc          	movzwl -0x4(%ebp),%edx
c0001aeb:	ee                   	out    %al,(%dx)
c0001aec:	c9                   	leave  
c0001aed:	c3                   	ret    

c0001aee <frequency_set>:
c0001aee:	55                   	push   %ebp
c0001aef:	89 e5                	mov    %esp,%ebp
c0001af1:	56                   	push   %esi
c0001af2:	53                   	push   %ebx
c0001af3:	83 ec 20             	sub    $0x20,%esp
c0001af6:	8b 75 08             	mov    0x8(%ebp),%esi
c0001af9:	8b 5d 0c             	mov    0xc(%ebp),%ebx
c0001afc:	8b 4d 10             	mov    0x10(%ebp),%ecx
c0001aff:	8b 55 14             	mov    0x14(%ebp),%edx
c0001b02:	8b 45 18             	mov    0x18(%ebp),%eax
c0001b05:	89 45 e0             	mov    %eax,-0x20(%ebp)
c0001b08:	89 f0                	mov    %esi,%eax
c0001b0a:	88 45 f4             	mov    %al,-0xc(%ebp)
c0001b0d:	88 5d f0             	mov    %bl,-0x10(%ebp)
c0001b10:	88 4d ec             	mov    %cl,-0x14(%ebp)
c0001b13:	88 55 e8             	mov    %dl,-0x18(%ebp)
c0001b16:	0f b7 45 e0          	movzwl -0x20(%ebp),%eax
c0001b1a:	66 89 45 e4          	mov    %ax,-0x1c(%ebp)
c0001b1e:	0f b6 45 f0          	movzbl -0x10(%ebp),%eax
c0001b22:	c1 e0 06             	shl    $0x6,%eax
c0001b25:	89 c2                	mov    %eax,%edx
c0001b27:	0f b6 45 ec          	movzbl -0x14(%ebp),%eax
c0001b2b:	c1 e0 04             	shl    $0x4,%eax
c0001b2e:	09 c2                	or     %eax,%edx
c0001b30:	0f b6 45 e8          	movzbl -0x18(%ebp),%eax
c0001b34:	01 c0                	add    %eax,%eax
c0001b36:	09 d0                	or     %edx,%eax
c0001b38:	0f b6 c0             	movzbl %al,%eax
c0001b3b:	89 44 24 04          	mov    %eax,0x4(%esp)
c0001b3f:	c7 04 24 43 00 00 00 	movl   $0x43,(%esp)
c0001b46:	e8 85 ff ff ff       	call   c0001ad0 <outb>
c0001b4b:	0f b7 45 e4          	movzwl -0x1c(%ebp),%eax
c0001b4f:	0f b6 d0             	movzbl %al,%edx
c0001b52:	0f b6 45 f4          	movzbl -0xc(%ebp),%eax
c0001b56:	89 54 24 04          	mov    %edx,0x4(%esp)
c0001b5a:	89 04 24             	mov    %eax,(%esp)
c0001b5d:	e8 6e ff ff ff       	call   c0001ad0 <outb>
c0001b62:	0f b7 45 e4          	movzwl -0x1c(%ebp),%eax
c0001b66:	0f b6 c0             	movzbl %al,%eax
c0001b69:	c1 f8 08             	sar    $0x8,%eax
c0001b6c:	0f b6 d0             	movzbl %al,%edx
c0001b6f:	0f b6 45 f4          	movzbl -0xc(%ebp),%eax
c0001b73:	89 54 24 04          	mov    %edx,0x4(%esp)
c0001b77:	89 04 24             	mov    %eax,(%esp)
c0001b7a:	e8 51 ff ff ff       	call   c0001ad0 <outb>
c0001b7f:	83 c4 20             	add    $0x20,%esp
c0001b82:	5b                   	pop    %ebx
c0001b83:	5e                   	pop    %esi
c0001b84:	5d                   	pop    %ebp
c0001b85:	c3                   	ret    

c0001b86 <intr_timer_handler>:
c0001b86:	55                   	push   %ebp
c0001b87:	89 e5                	mov    %esp,%ebp
c0001b89:	83 ec 28             	sub    $0x28,%esp
c0001b8c:	e8 0a 17 00 00       	call   c000329b <running_thread>
c0001b91:	89 45 f4             	mov    %eax,-0xc(%ebp)
c0001b94:	8b 45 f4             	mov    -0xc(%ebp),%eax
c0001b97:	8b 40 40             	mov    0x40(%eax),%eax
c0001b9a:	3d 16 09 87 19       	cmp    $0x19870916,%eax
c0001b9f:	74 24                	je     c0001bc5 <intr_timer_handler+0x3f>
c0001ba1:	c7 44 24 0c a4 53 00 	movl   $0xc00053a4,0xc(%esp)
c0001ba8:	c0 
c0001ba9:	c7 44 24 08 fc 53 00 	movl   $0xc00053fc,0x8(%esp)
c0001bb0:	c0 
c0001bb1:	c7 44 24 04 28 00 00 	movl   $0x28,0x4(%esp)
c0001bb8:	00 
c0001bb9:	c7 04 24 ca 53 00 c0 	movl   $0xc00053ca,(%esp)
c0001bc0:	e8 5d 07 00 00       	call   c0002322 <panic_spin>
c0001bc5:	8b 45 f4             	mov    -0xc(%ebp),%eax
c0001bc8:	8b 40 1c             	mov    0x1c(%eax),%eax
c0001bcb:	8d 50 01             	lea    0x1(%eax),%edx
c0001bce:	8b 45 f4             	mov    -0xc(%ebp),%eax
c0001bd1:	89 50 1c             	mov    %edx,0x1c(%eax)
c0001bd4:	a1 40 85 00 c0       	mov    0xc0008540,%eax
c0001bd9:	83 c0 01             	add    $0x1,%eax
c0001bdc:	a3 40 85 00 c0       	mov    %eax,0xc0008540
c0001be1:	8b 45 f4             	mov    -0xc(%ebp),%eax
c0001be4:	0f b6 40 19          	movzbl 0x19(%eax),%eax
c0001be8:	84 c0                	test   %al,%al
c0001bea:	75 07                	jne    c0001bf3 <intr_timer_handler+0x6d>
c0001bec:	e8 68 19 00 00       	call   c0003559 <schedule>
c0001bf1:	eb 10                	jmp    c0001c03 <intr_timer_handler+0x7d>
c0001bf3:	8b 45 f4             	mov    -0xc(%ebp),%eax
c0001bf6:	0f b6 40 19          	movzbl 0x19(%eax),%eax
c0001bfa:	8d 50 ff             	lea    -0x1(%eax),%edx
c0001bfd:	8b 45 f4             	mov    -0xc(%ebp),%eax
c0001c00:	88 50 19             	mov    %dl,0x19(%eax)
c0001c03:	c9                   	leave  
c0001c04:	c3                   	ret    

c0001c05 <timer_init>:
c0001c05:	55                   	push   %ebp
c0001c06:	89 e5                	mov    %esp,%ebp
c0001c08:	83 ec 28             	sub    $0x28,%esp
c0001c0b:	c7 04 24 d9 53 00 c0 	movl   $0xc00053d9,(%esp)
c0001c12:	e8 99 05 00 00       	call   c00021b0 <put_str>
c0001c17:	c7 44 24 10 9b 2e 00 	movl   $0x2e9b,0x10(%esp)
c0001c1e:	00 
c0001c1f:	c7 44 24 0c 02 00 00 	movl   $0x2,0xc(%esp)
c0001c26:	00 
c0001c27:	c7 44 24 08 03 00 00 	movl   $0x3,0x8(%esp)
c0001c2e:	00 
c0001c2f:	c7 44 24 04 00 00 00 	movl   $0x0,0x4(%esp)
c0001c36:	00 
c0001c37:	c7 04 24 40 00 00 00 	movl   $0x40,(%esp)
c0001c3e:	e8 ab fe ff ff       	call   c0001aee <frequency_set>
c0001c43:	c7 44 24 04 86 1b 00 	movl   $0xc0001b86,0x4(%esp)
c0001c4a:	c0 
c0001c4b:	c7 04 24 20 00 00 00 	movl   $0x20,(%esp)
c0001c52:	e8 ff fd ff ff       	call   c0001a56 <register_handler>
c0001c57:	c7 04 24 eb 53 00 c0 	movl   $0xc00053eb,(%esp)
c0001c5e:	e8 4d 05 00 00       	call   c00021b0 <put_str>
c0001c63:	c9                   	leave  
c0001c64:	c3                   	ret    
c0001c65:	66 90                	xchg   %ax,%ax
c0001c67:	66 90                	xchg   %ax,%ax
c0001c69:	66 90                	xchg   %ax,%ax
c0001c6b:	66 90                	xchg   %ax,%ax
c0001c6d:	66 90                	xchg   %ax,%ax
c0001c6f:	90                   	nop

c0001c70 <intr_exit>:
c0001c70:	83 c4 04             	add    $0x4,%esp
c0001c73:	61                   	popa   
c0001c74:	0f a9                	pop    %gs
c0001c76:	0f a1                	pop    %fs
c0001c78:	07                   	pop    %es
c0001c79:	1f                   	pop    %ds
c0001c7a:	83 c4 04             	add    $0x4,%esp
c0001c7d:	cf                   	iret   

c0001c7e <intr0x00entry>:
c0001c7e:	6a 00                	push   $0x0
c0001c80:	1e                   	push   %ds
c0001c81:	06                   	push   %es
c0001c82:	0f a0                	push   %fs
c0001c84:	0f a8                	push   %gs
c0001c86:	60                   	pusha  
c0001c87:	b0 20                	mov    $0x20,%al
c0001c89:	e6 a0                	out    %al,$0xa0
c0001c8b:	e6 20                	out    %al,$0x20
c0001c8d:	6a 00                	push   $0x0
c0001c8f:	ff 15 80 84 00 c0    	call   *0xc0008480
c0001c95:	eb d9                	jmp    c0001c70 <intr_exit>

c0001c97 <intr0x01entry>:
c0001c97:	6a 00                	push   $0x0
c0001c99:	1e                   	push   %ds
c0001c9a:	06                   	push   %es
c0001c9b:	0f a0                	push   %fs
c0001c9d:	0f a8                	push   %gs
c0001c9f:	60                   	pusha  
c0001ca0:	b0 20                	mov    $0x20,%al
c0001ca2:	e6 a0                	out    %al,$0xa0
c0001ca4:	e6 20                	out    %al,$0x20
c0001ca6:	6a 01                	push   $0x1
c0001ca8:	ff 15 84 84 00 c0    	call   *0xc0008484
c0001cae:	eb c0                	jmp    c0001c70 <intr_exit>

c0001cb0 <intr0x02entry>:
c0001cb0:	6a 00                	push   $0x0
c0001cb2:	1e                   	push   %ds
c0001cb3:	06                   	push   %es
c0001cb4:	0f a0                	push   %fs
c0001cb6:	0f a8                	push   %gs
c0001cb8:	60                   	pusha  
c0001cb9:	b0 20                	mov    $0x20,%al
c0001cbb:	e6 a0                	out    %al,$0xa0
c0001cbd:	e6 20                	out    %al,$0x20
c0001cbf:	6a 02                	push   $0x2
c0001cc1:	ff 15 88 84 00 c0    	call   *0xc0008488
c0001cc7:	eb a7                	jmp    c0001c70 <intr_exit>

c0001cc9 <intr0x03entry>:
c0001cc9:	6a 00                	push   $0x0
c0001ccb:	1e                   	push   %ds
c0001ccc:	06                   	push   %es
c0001ccd:	0f a0                	push   %fs
c0001ccf:	0f a8                	push   %gs
c0001cd1:	60                   	pusha  
c0001cd2:	b0 20                	mov    $0x20,%al
c0001cd4:	e6 a0                	out    %al,$0xa0
c0001cd6:	e6 20                	out    %al,$0x20
c0001cd8:	6a 03                	push   $0x3
c0001cda:	ff 15 8c 84 00 c0    	call   *0xc000848c
c0001ce0:	eb 8e                	jmp    c0001c70 <intr_exit>

c0001ce2 <intr0x04entry>:
c0001ce2:	6a 00                	push   $0x0
c0001ce4:	1e                   	push   %ds
c0001ce5:	06                   	push   %es
c0001ce6:	0f a0                	push   %fs
c0001ce8:	0f a8                	push   %gs
c0001cea:	60                   	pusha  
c0001ceb:	b0 20                	mov    $0x20,%al
c0001ced:	e6 a0                	out    %al,$0xa0
c0001cef:	e6 20                	out    %al,$0x20
c0001cf1:	6a 04                	push   $0x4
c0001cf3:	ff 15 90 84 00 c0    	call   *0xc0008490
c0001cf9:	e9 72 ff ff ff       	jmp    c0001c70 <intr_exit>

c0001cfe <intr0x05entry>:
c0001cfe:	6a 00                	push   $0x0
c0001d00:	1e                   	push   %ds
c0001d01:	06                   	push   %es
c0001d02:	0f a0                	push   %fs
c0001d04:	0f a8                	push   %gs
c0001d06:	60                   	pusha  
c0001d07:	b0 20                	mov    $0x20,%al
c0001d09:	e6 a0                	out    %al,$0xa0
c0001d0b:	e6 20                	out    %al,$0x20
c0001d0d:	6a 05                	push   $0x5
c0001d0f:	ff 15 94 84 00 c0    	call   *0xc0008494
c0001d15:	e9 56 ff ff ff       	jmp    c0001c70 <intr_exit>

c0001d1a <intr0x06entry>:
c0001d1a:	6a 00                	push   $0x0
c0001d1c:	1e                   	push   %ds
c0001d1d:	06                   	push   %es
c0001d1e:	0f a0                	push   %fs
c0001d20:	0f a8                	push   %gs
c0001d22:	60                   	pusha  
c0001d23:	b0 20                	mov    $0x20,%al
c0001d25:	e6 a0                	out    %al,$0xa0
c0001d27:	e6 20                	out    %al,$0x20
c0001d29:	6a 06                	push   $0x6
c0001d2b:	ff 15 98 84 00 c0    	call   *0xc0008498
c0001d31:	e9 3a ff ff ff       	jmp    c0001c70 <intr_exit>

c0001d36 <intr0x07entry>:
c0001d36:	6a 00                	push   $0x0
c0001d38:	1e                   	push   %ds
c0001d39:	06                   	push   %es
c0001d3a:	0f a0                	push   %fs
c0001d3c:	0f a8                	push   %gs
c0001d3e:	60                   	pusha  
c0001d3f:	b0 20                	mov    $0x20,%al
c0001d41:	e6 a0                	out    %al,$0xa0
c0001d43:	e6 20                	out    %al,$0x20
c0001d45:	6a 07                	push   $0x7
c0001d47:	ff 15 9c 84 00 c0    	call   *0xc000849c
c0001d4d:	e9 1e ff ff ff       	jmp    c0001c70 <intr_exit>

c0001d52 <intr0x08entry>:
c0001d52:	90                   	nop
c0001d53:	1e                   	push   %ds
c0001d54:	06                   	push   %es
c0001d55:	0f a0                	push   %fs
c0001d57:	0f a8                	push   %gs
c0001d59:	60                   	pusha  
c0001d5a:	b0 20                	mov    $0x20,%al
c0001d5c:	e6 a0                	out    %al,$0xa0
c0001d5e:	e6 20                	out    %al,$0x20
c0001d60:	6a 08                	push   $0x8
c0001d62:	ff 15 a0 84 00 c0    	call   *0xc00084a0
c0001d68:	e9 03 ff ff ff       	jmp    c0001c70 <intr_exit>

c0001d6d <intr0x09entry>:
c0001d6d:	6a 00                	push   $0x0
c0001d6f:	1e                   	push   %ds
c0001d70:	06                   	push   %es
c0001d71:	0f a0                	push   %fs
c0001d73:	0f a8                	push   %gs
c0001d75:	60                   	pusha  
c0001d76:	b0 20                	mov    $0x20,%al
c0001d78:	e6 a0                	out    %al,$0xa0
c0001d7a:	e6 20                	out    %al,$0x20
c0001d7c:	6a 09                	push   $0x9
c0001d7e:	ff 15 a4 84 00 c0    	call   *0xc00084a4
c0001d84:	e9 e7 fe ff ff       	jmp    c0001c70 <intr_exit>

c0001d89 <intr0x0aentry>:
c0001d89:	90                   	nop
c0001d8a:	1e                   	push   %ds
c0001d8b:	06                   	push   %es
c0001d8c:	0f a0                	push   %fs
c0001d8e:	0f a8                	push   %gs
c0001d90:	60                   	pusha  
c0001d91:	b0 20                	mov    $0x20,%al
c0001d93:	e6 a0                	out    %al,$0xa0
c0001d95:	e6 20                	out    %al,$0x20
c0001d97:	6a 0a                	push   $0xa
c0001d99:	ff 15 a8 84 00 c0    	call   *0xc00084a8
c0001d9f:	e9 cc fe ff ff       	jmp    c0001c70 <intr_exit>

c0001da4 <intr0x0bentry>:
c0001da4:	90                   	nop
c0001da5:	1e                   	push   %ds
c0001da6:	06                   	push   %es
c0001da7:	0f a0                	push   %fs
c0001da9:	0f a8                	push   %gs
c0001dab:	60                   	pusha  
c0001dac:	b0 20                	mov    $0x20,%al
c0001dae:	e6 a0                	out    %al,$0xa0
c0001db0:	e6 20                	out    %al,$0x20
c0001db2:	6a 0b                	push   $0xb
c0001db4:	ff 15 ac 84 00 c0    	call   *0xc00084ac
c0001dba:	e9 b1 fe ff ff       	jmp    c0001c70 <intr_exit>

c0001dbf <intr0x0centry>:
c0001dbf:	6a 00                	push   $0x0
c0001dc1:	1e                   	push   %ds
c0001dc2:	06                   	push   %es
c0001dc3:	0f a0                	push   %fs
c0001dc5:	0f a8                	push   %gs
c0001dc7:	60                   	pusha  
c0001dc8:	b0 20                	mov    $0x20,%al
c0001dca:	e6 a0                	out    %al,$0xa0
c0001dcc:	e6 20                	out    %al,$0x20
c0001dce:	6a 0c                	push   $0xc
c0001dd0:	ff 15 b0 84 00 c0    	call   *0xc00084b0
c0001dd6:	e9 95 fe ff ff       	jmp    c0001c70 <intr_exit>

c0001ddb <intr0x0dentry>:
c0001ddb:	90                   	nop
c0001ddc:	1e                   	push   %ds
c0001ddd:	06                   	push   %es
c0001dde:	0f a0                	push   %fs
c0001de0:	0f a8                	push   %gs
c0001de2:	60                   	pusha  
c0001de3:	b0 20                	mov    $0x20,%al
c0001de5:	e6 a0                	out    %al,$0xa0
c0001de7:	e6 20                	out    %al,$0x20
c0001de9:	6a 0d                	push   $0xd
c0001deb:	ff 15 b4 84 00 c0    	call   *0xc00084b4
c0001df1:	e9 7a fe ff ff       	jmp    c0001c70 <intr_exit>

c0001df6 <intr0x0eentry>:
c0001df6:	90                   	nop
c0001df7:	1e                   	push   %ds
c0001df8:	06                   	push   %es
c0001df9:	0f a0                	push   %fs
c0001dfb:	0f a8                	push   %gs
c0001dfd:	60                   	pusha  
c0001dfe:	b0 20                	mov    $0x20,%al
c0001e00:	e6 a0                	out    %al,$0xa0
c0001e02:	e6 20                	out    %al,$0x20
c0001e04:	6a 0e                	push   $0xe
c0001e06:	ff 15 b8 84 00 c0    	call   *0xc00084b8
c0001e0c:	e9 5f fe ff ff       	jmp    c0001c70 <intr_exit>

c0001e11 <intr0x0fentry>:
c0001e11:	6a 00                	push   $0x0
c0001e13:	1e                   	push   %ds
c0001e14:	06                   	push   %es
c0001e15:	0f a0                	push   %fs
c0001e17:	0f a8                	push   %gs
c0001e19:	60                   	pusha  
c0001e1a:	b0 20                	mov    $0x20,%al
c0001e1c:	e6 a0                	out    %al,$0xa0
c0001e1e:	e6 20                	out    %al,$0x20
c0001e20:	6a 0f                	push   $0xf
c0001e22:	ff 15 bc 84 00 c0    	call   *0xc00084bc
c0001e28:	e9 43 fe ff ff       	jmp    c0001c70 <intr_exit>

c0001e2d <intr0x10entry>:
c0001e2d:	6a 00                	push   $0x0
c0001e2f:	1e                   	push   %ds
c0001e30:	06                   	push   %es
c0001e31:	0f a0                	push   %fs
c0001e33:	0f a8                	push   %gs
c0001e35:	60                   	pusha  
c0001e36:	b0 20                	mov    $0x20,%al
c0001e38:	e6 a0                	out    %al,$0xa0
c0001e3a:	e6 20                	out    %al,$0x20
c0001e3c:	6a 10                	push   $0x10
c0001e3e:	ff 15 c0 84 00 c0    	call   *0xc00084c0
c0001e44:	e9 27 fe ff ff       	jmp    c0001c70 <intr_exit>

c0001e49 <intr0x11entry>:
c0001e49:	90                   	nop
c0001e4a:	1e                   	push   %ds
c0001e4b:	06                   	push   %es
c0001e4c:	0f a0                	push   %fs
c0001e4e:	0f a8                	push   %gs
c0001e50:	60                   	pusha  
c0001e51:	b0 20                	mov    $0x20,%al
c0001e53:	e6 a0                	out    %al,$0xa0
c0001e55:	e6 20                	out    %al,$0x20
c0001e57:	6a 11                	push   $0x11
c0001e59:	ff 15 c4 84 00 c0    	call   *0xc00084c4
c0001e5f:	e9 0c fe ff ff       	jmp    c0001c70 <intr_exit>

c0001e64 <intr0x12entry>:
c0001e64:	6a 00                	push   $0x0
c0001e66:	1e                   	push   %ds
c0001e67:	06                   	push   %es
c0001e68:	0f a0                	push   %fs
c0001e6a:	0f a8                	push   %gs
c0001e6c:	60                   	pusha  
c0001e6d:	b0 20                	mov    $0x20,%al
c0001e6f:	e6 a0                	out    %al,$0xa0
c0001e71:	e6 20                	out    %al,$0x20
c0001e73:	6a 12                	push   $0x12
c0001e75:	ff 15 c8 84 00 c0    	call   *0xc00084c8
c0001e7b:	e9 f0 fd ff ff       	jmp    c0001c70 <intr_exit>

c0001e80 <intr0x13entry>:
c0001e80:	6a 00                	push   $0x0
c0001e82:	1e                   	push   %ds
c0001e83:	06                   	push   %es
c0001e84:	0f a0                	push   %fs
c0001e86:	0f a8                	push   %gs
c0001e88:	60                   	pusha  
c0001e89:	b0 20                	mov    $0x20,%al
c0001e8b:	e6 a0                	out    %al,$0xa0
c0001e8d:	e6 20                	out    %al,$0x20
c0001e8f:	6a 13                	push   $0x13
c0001e91:	ff 15 cc 84 00 c0    	call   *0xc00084cc
c0001e97:	e9 d4 fd ff ff       	jmp    c0001c70 <intr_exit>

c0001e9c <intr0x14entry>:
c0001e9c:	6a 00                	push   $0x0
c0001e9e:	1e                   	push   %ds
c0001e9f:	06                   	push   %es
c0001ea0:	0f a0                	push   %fs
c0001ea2:	0f a8                	push   %gs
c0001ea4:	60                   	pusha  
c0001ea5:	b0 20                	mov    $0x20,%al
c0001ea7:	e6 a0                	out    %al,$0xa0
c0001ea9:	e6 20                	out    %al,$0x20
c0001eab:	6a 14                	push   $0x14
c0001ead:	ff 15 d0 84 00 c0    	call   *0xc00084d0
c0001eb3:	e9 b8 fd ff ff       	jmp    c0001c70 <intr_exit>

c0001eb8 <intr0x15entry>:
c0001eb8:	6a 00                	push   $0x0
c0001eba:	1e                   	push   %ds
c0001ebb:	06                   	push   %es
c0001ebc:	0f a0                	push   %fs
c0001ebe:	0f a8                	push   %gs
c0001ec0:	60                   	pusha  
c0001ec1:	b0 20                	mov    $0x20,%al
c0001ec3:	e6 a0                	out    %al,$0xa0
c0001ec5:	e6 20                	out    %al,$0x20
c0001ec7:	6a 15                	push   $0x15
c0001ec9:	ff 15 d4 84 00 c0    	call   *0xc00084d4
c0001ecf:	e9 9c fd ff ff       	jmp    c0001c70 <intr_exit>

c0001ed4 <intr0x16entry>:
c0001ed4:	6a 00                	push   $0x0
c0001ed6:	1e                   	push   %ds
c0001ed7:	06                   	push   %es
c0001ed8:	0f a0                	push   %fs
c0001eda:	0f a8                	push   %gs
c0001edc:	60                   	pusha  
c0001edd:	b0 20                	mov    $0x20,%al
c0001edf:	e6 a0                	out    %al,$0xa0
c0001ee1:	e6 20                	out    %al,$0x20
c0001ee3:	6a 16                	push   $0x16
c0001ee5:	ff 15 d8 84 00 c0    	call   *0xc00084d8
c0001eeb:	e9 80 fd ff ff       	jmp    c0001c70 <intr_exit>

c0001ef0 <intr0x17entry>:
c0001ef0:	6a 00                	push   $0x0
c0001ef2:	1e                   	push   %ds
c0001ef3:	06                   	push   %es
c0001ef4:	0f a0                	push   %fs
c0001ef6:	0f a8                	push   %gs
c0001ef8:	60                   	pusha  
c0001ef9:	b0 20                	mov    $0x20,%al
c0001efb:	e6 a0                	out    %al,$0xa0
c0001efd:	e6 20                	out    %al,$0x20
c0001eff:	6a 17                	push   $0x17
c0001f01:	ff 15 dc 84 00 c0    	call   *0xc00084dc
c0001f07:	e9 64 fd ff ff       	jmp    c0001c70 <intr_exit>

c0001f0c <intr0x18entry>:
c0001f0c:	90                   	nop
c0001f0d:	1e                   	push   %ds
c0001f0e:	06                   	push   %es
c0001f0f:	0f a0                	push   %fs
c0001f11:	0f a8                	push   %gs
c0001f13:	60                   	pusha  
c0001f14:	b0 20                	mov    $0x20,%al
c0001f16:	e6 a0                	out    %al,$0xa0
c0001f18:	e6 20                	out    %al,$0x20
c0001f1a:	6a 18                	push   $0x18
c0001f1c:	ff 15 e0 84 00 c0    	call   *0xc00084e0
c0001f22:	e9 49 fd ff ff       	jmp    c0001c70 <intr_exit>

c0001f27 <intr0x19entry>:
c0001f27:	6a 00                	push   $0x0
c0001f29:	1e                   	push   %ds
c0001f2a:	06                   	push   %es
c0001f2b:	0f a0                	push   %fs
c0001f2d:	0f a8                	push   %gs
c0001f2f:	60                   	pusha  
c0001f30:	b0 20                	mov    $0x20,%al
c0001f32:	e6 a0                	out    %al,$0xa0
c0001f34:	e6 20                	out    %al,$0x20
c0001f36:	6a 19                	push   $0x19
c0001f38:	ff 15 e4 84 00 c0    	call   *0xc00084e4
c0001f3e:	e9 2d fd ff ff       	jmp    c0001c70 <intr_exit>

c0001f43 <intr0x1aentry>:
c0001f43:	90                   	nop
c0001f44:	1e                   	push   %ds
c0001f45:	06                   	push   %es
c0001f46:	0f a0                	push   %fs
c0001f48:	0f a8                	push   %gs
c0001f4a:	60                   	pusha  
c0001f4b:	b0 20                	mov    $0x20,%al
c0001f4d:	e6 a0                	out    %al,$0xa0
c0001f4f:	e6 20                	out    %al,$0x20
c0001f51:	6a 1a                	push   $0x1a
c0001f53:	ff 15 e8 84 00 c0    	call   *0xc00084e8
c0001f59:	e9 12 fd ff ff       	jmp    c0001c70 <intr_exit>

c0001f5e <intr0x1bentry>:
c0001f5e:	90                   	nop
c0001f5f:	1e                   	push   %ds
c0001f60:	06                   	push   %es
c0001f61:	0f a0                	push   %fs
c0001f63:	0f a8                	push   %gs
c0001f65:	60                   	pusha  
c0001f66:	b0 20                	mov    $0x20,%al
c0001f68:	e6 a0                	out    %al,$0xa0
c0001f6a:	e6 20                	out    %al,$0x20
c0001f6c:	6a 1b                	push   $0x1b
c0001f6e:	ff 15 ec 84 00 c0    	call   *0xc00084ec
c0001f74:	e9 f7 fc ff ff       	jmp    c0001c70 <intr_exit>

c0001f79 <intr0x1centry>:
c0001f79:	6a 00                	push   $0x0
c0001f7b:	1e                   	push   %ds
c0001f7c:	06                   	push   %es
c0001f7d:	0f a0                	push   %fs
c0001f7f:	0f a8                	push   %gs
c0001f81:	60                   	pusha  
c0001f82:	b0 20                	mov    $0x20,%al
c0001f84:	e6 a0                	out    %al,$0xa0
c0001f86:	e6 20                	out    %al,$0x20
c0001f88:	6a 1c                	push   $0x1c
c0001f8a:	ff 15 f0 84 00 c0    	call   *0xc00084f0
c0001f90:	e9 db fc ff ff       	jmp    c0001c70 <intr_exit>

c0001f95 <intr0x1dentry>:
c0001f95:	90                   	nop
c0001f96:	1e                   	push   %ds
c0001f97:	06                   	push   %es
c0001f98:	0f a0                	push   %fs
c0001f9a:	0f a8                	push   %gs
c0001f9c:	60                   	pusha  
c0001f9d:	b0 20                	mov    $0x20,%al
c0001f9f:	e6 a0                	out    %al,$0xa0
c0001fa1:	e6 20                	out    %al,$0x20
c0001fa3:	6a 1d                	push   $0x1d
c0001fa5:	ff 15 f4 84 00 c0    	call   *0xc00084f4
c0001fab:	e9 c0 fc ff ff       	jmp    c0001c70 <intr_exit>

c0001fb0 <intr0x1eentry>:
c0001fb0:	90                   	nop
c0001fb1:	1e                   	push   %ds
c0001fb2:	06                   	push   %es
c0001fb3:	0f a0                	push   %fs
c0001fb5:	0f a8                	push   %gs
c0001fb7:	60                   	pusha  
c0001fb8:	b0 20                	mov    $0x20,%al
c0001fba:	e6 a0                	out    %al,$0xa0
c0001fbc:	e6 20                	out    %al,$0x20
c0001fbe:	6a 1e                	push   $0x1e
c0001fc0:	ff 15 f8 84 00 c0    	call   *0xc00084f8
c0001fc6:	e9 a5 fc ff ff       	jmp    c0001c70 <intr_exit>

c0001fcb <intr0x1fentry>:
c0001fcb:	6a 00                	push   $0x0
c0001fcd:	1e                   	push   %ds
c0001fce:	06                   	push   %es
c0001fcf:	0f a0                	push   %fs
c0001fd1:	0f a8                	push   %gs
c0001fd3:	60                   	pusha  
c0001fd4:	b0 20                	mov    $0x20,%al
c0001fd6:	e6 a0                	out    %al,$0xa0
c0001fd8:	e6 20                	out    %al,$0x20
c0001fda:	6a 1f                	push   $0x1f
c0001fdc:	ff 15 fc 84 00 c0    	call   *0xc00084fc
c0001fe2:	e9 89 fc ff ff       	jmp    c0001c70 <intr_exit>

c0001fe7 <intr0x20entry>:
c0001fe7:	6a 00                	push   $0x0
c0001fe9:	1e                   	push   %ds
c0001fea:	06                   	push   %es
c0001feb:	0f a0                	push   %fs
c0001fed:	0f a8                	push   %gs
c0001fef:	60                   	pusha  
c0001ff0:	b0 20                	mov    $0x20,%al
c0001ff2:	e6 a0                	out    %al,$0xa0
c0001ff4:	e6 20                	out    %al,$0x20
c0001ff6:	6a 20                	push   $0x20
c0001ff8:	ff 15 00 85 00 c0    	call   *0xc0008500
c0001ffe:	e9 6d fc ff ff       	jmp    c0001c70 <intr_exit>

c0002003 <intr0x21entry>:
c0002003:	6a 00                	push   $0x0
c0002005:	1e                   	push   %ds
c0002006:	06                   	push   %es
c0002007:	0f a0                	push   %fs
c0002009:	0f a8                	push   %gs
c000200b:	60                   	pusha  
c000200c:	b0 20                	mov    $0x20,%al
c000200e:	e6 a0                	out    %al,$0xa0
c0002010:	e6 20                	out    %al,$0x20
c0002012:	6a 21                	push   $0x21
c0002014:	ff 15 04 85 00 c0    	call   *0xc0008504
c000201a:	e9 51 fc ff ff       	jmp    c0001c70 <intr_exit>

c000201f <intr0x22entry>:
c000201f:	6a 00                	push   $0x0
c0002021:	1e                   	push   %ds
c0002022:	06                   	push   %es
c0002023:	0f a0                	push   %fs
c0002025:	0f a8                	push   %gs
c0002027:	60                   	pusha  
c0002028:	b0 20                	mov    $0x20,%al
c000202a:	e6 a0                	out    %al,$0xa0
c000202c:	e6 20                	out    %al,$0x20
c000202e:	6a 22                	push   $0x22
c0002030:	ff 15 08 85 00 c0    	call   *0xc0008508
c0002036:	e9 35 fc ff ff       	jmp    c0001c70 <intr_exit>

c000203b <intr0x23entry>:
c000203b:	6a 00                	push   $0x0
c000203d:	1e                   	push   %ds
c000203e:	06                   	push   %es
c000203f:	0f a0                	push   %fs
c0002041:	0f a8                	push   %gs
c0002043:	60                   	pusha  
c0002044:	b0 20                	mov    $0x20,%al
c0002046:	e6 a0                	out    %al,$0xa0
c0002048:	e6 20                	out    %al,$0x20
c000204a:	6a 23                	push   $0x23
c000204c:	ff 15 0c 85 00 c0    	call   *0xc000850c
c0002052:	e9 19 fc ff ff       	jmp    c0001c70 <intr_exit>

c0002057 <intr0x24entry>:
c0002057:	6a 00                	push   $0x0
c0002059:	1e                   	push   %ds
c000205a:	06                   	push   %es
c000205b:	0f a0                	push   %fs
c000205d:	0f a8                	push   %gs
c000205f:	60                   	pusha  
c0002060:	b0 20                	mov    $0x20,%al
c0002062:	e6 a0                	out    %al,$0xa0
c0002064:	e6 20                	out    %al,$0x20
c0002066:	6a 24                	push   $0x24
c0002068:	ff 15 10 85 00 c0    	call   *0xc0008510
c000206e:	e9 fd fb ff ff       	jmp    c0001c70 <intr_exit>

c0002073 <intr0x25entry>:
c0002073:	6a 00                	push   $0x0
c0002075:	1e                   	push   %ds
c0002076:	06                   	push   %es
c0002077:	0f a0                	push   %fs
c0002079:	0f a8                	push   %gs
c000207b:	60                   	pusha  
c000207c:	b0 20                	mov    $0x20,%al
c000207e:	e6 a0                	out    %al,$0xa0
c0002080:	e6 20                	out    %al,$0x20
c0002082:	6a 25                	push   $0x25
c0002084:	ff 15 14 85 00 c0    	call   *0xc0008514
c000208a:	e9 e1 fb ff ff       	jmp    c0001c70 <intr_exit>

c000208f <intr0x26entry>:
c000208f:	6a 00                	push   $0x0
c0002091:	1e                   	push   %ds
c0002092:	06                   	push   %es
c0002093:	0f a0                	push   %fs
c0002095:	0f a8                	push   %gs
c0002097:	60                   	pusha  
c0002098:	b0 20                	mov    $0x20,%al
c000209a:	e6 a0                	out    %al,$0xa0
c000209c:	e6 20                	out    %al,$0x20
c000209e:	6a 26                	push   $0x26
c00020a0:	ff 15 18 85 00 c0    	call   *0xc0008518
c00020a6:	e9 c5 fb ff ff       	jmp    c0001c70 <intr_exit>

c00020ab <intr0x27entry>:
c00020ab:	6a 00                	push   $0x0
c00020ad:	1e                   	push   %ds
c00020ae:	06                   	push   %es
c00020af:	0f a0                	push   %fs
c00020b1:	0f a8                	push   %gs
c00020b3:	60                   	pusha  
c00020b4:	b0 20                	mov    $0x20,%al
c00020b6:	e6 a0                	out    %al,$0xa0
c00020b8:	e6 20                	out    %al,$0x20
c00020ba:	6a 27                	push   $0x27
c00020bc:	ff 15 1c 85 00 c0    	call   *0xc000851c
c00020c2:	e9 a9 fb ff ff       	jmp    c0001c70 <intr_exit>

c00020c7 <intr0x28entry>:
c00020c7:	6a 00                	push   $0x0
c00020c9:	1e                   	push   %ds
c00020ca:	06                   	push   %es
c00020cb:	0f a0                	push   %fs
c00020cd:	0f a8                	push   %gs
c00020cf:	60                   	pusha  
c00020d0:	b0 20                	mov    $0x20,%al
c00020d2:	e6 a0                	out    %al,$0xa0
c00020d4:	e6 20                	out    %al,$0x20
c00020d6:	6a 28                	push   $0x28
c00020d8:	ff 15 20 85 00 c0    	call   *0xc0008520
c00020de:	e9 8d fb ff ff       	jmp    c0001c70 <intr_exit>

c00020e3 <intr0x29entry>:
c00020e3:	6a 00                	push   $0x0
c00020e5:	1e                   	push   %ds
c00020e6:	06                   	push   %es
c00020e7:	0f a0                	push   %fs
c00020e9:	0f a8                	push   %gs
c00020eb:	60                   	pusha  
c00020ec:	b0 20                	mov    $0x20,%al
c00020ee:	e6 a0                	out    %al,$0xa0
c00020f0:	e6 20                	out    %al,$0x20
c00020f2:	6a 29                	push   $0x29
c00020f4:	ff 15 24 85 00 c0    	call   *0xc0008524
c00020fa:	e9 71 fb ff ff       	jmp    c0001c70 <intr_exit>

c00020ff <intr0x2aentry>:
c00020ff:	6a 00                	push   $0x0
c0002101:	1e                   	push   %ds
c0002102:	06                   	push   %es
c0002103:	0f a0                	push   %fs
c0002105:	0f a8                	push   %gs
c0002107:	60                   	pusha  
c0002108:	b0 20                	mov    $0x20,%al
c000210a:	e6 a0                	out    %al,$0xa0
c000210c:	e6 20                	out    %al,$0x20
c000210e:	6a 2a                	push   $0x2a
c0002110:	ff 15 28 85 00 c0    	call   *0xc0008528
c0002116:	e9 55 fb ff ff       	jmp    c0001c70 <intr_exit>

c000211b <intr0x2bentry>:
c000211b:	6a 00                	push   $0x0
c000211d:	1e                   	push   %ds
c000211e:	06                   	push   %es
c000211f:	0f a0                	push   %fs
c0002121:	0f a8                	push   %gs
c0002123:	60                   	pusha  
c0002124:	b0 20                	mov    $0x20,%al
c0002126:	e6 a0                	out    %al,$0xa0
c0002128:	e6 20                	out    %al,$0x20
c000212a:	6a 2b                	push   $0x2b
c000212c:	ff 15 2c 85 00 c0    	call   *0xc000852c
c0002132:	e9 39 fb ff ff       	jmp    c0001c70 <intr_exit>

c0002137 <intr0x2centry>:
c0002137:	6a 00                	push   $0x0
c0002139:	1e                   	push   %ds
c000213a:	06                   	push   %es
c000213b:	0f a0                	push   %fs
c000213d:	0f a8                	push   %gs
c000213f:	60                   	pusha  
c0002140:	b0 20                	mov    $0x20,%al
c0002142:	e6 a0                	out    %al,$0xa0
c0002144:	e6 20                	out    %al,$0x20
c0002146:	6a 2c                	push   $0x2c
c0002148:	ff 15 30 85 00 c0    	call   *0xc0008530
c000214e:	e9 1d fb ff ff       	jmp    c0001c70 <intr_exit>

c0002153 <intr0x2dentry>:
c0002153:	6a 00                	push   $0x0
c0002155:	1e                   	push   %ds
c0002156:	06                   	push   %es
c0002157:	0f a0                	push   %fs
c0002159:	0f a8                	push   %gs
c000215b:	60                   	pusha  
c000215c:	b0 20                	mov    $0x20,%al
c000215e:	e6 a0                	out    %al,$0xa0
c0002160:	e6 20                	out    %al,$0x20
c0002162:	6a 2d                	push   $0x2d
c0002164:	ff 15 34 85 00 c0    	call   *0xc0008534
c000216a:	e9 01 fb ff ff       	jmp    c0001c70 <intr_exit>

c000216f <intr0x2eentry>:
c000216f:	6a 00                	push   $0x0
c0002171:	1e                   	push   %ds
c0002172:	06                   	push   %es
c0002173:	0f a0                	push   %fs
c0002175:	0f a8                	push   %gs
c0002177:	60                   	pusha  
c0002178:	b0 20                	mov    $0x20,%al
c000217a:	e6 a0                	out    %al,$0xa0
c000217c:	e6 20                	out    %al,$0x20
c000217e:	6a 2e                	push   $0x2e
c0002180:	ff 15 38 85 00 c0    	call   *0xc0008538
c0002186:	e9 e5 fa ff ff       	jmp    c0001c70 <intr_exit>

c000218b <intr0x2fentry>:
c000218b:	6a 00                	push   $0x0
c000218d:	1e                   	push   %ds
c000218e:	06                   	push   %es
c000218f:	0f a0                	push   %fs
c0002191:	0f a8                	push   %gs
c0002193:	60                   	pusha  
c0002194:	b0 20                	mov    $0x20,%al
c0002196:	e6 a0                	out    %al,$0xa0
c0002198:	e6 20                	out    %al,$0x20
c000219a:	6a 2f                	push   $0x2f
c000219c:	ff 15 3c 85 00 c0    	call   *0xc000853c
c00021a2:	e9 c9 fa ff ff       	jmp    c0001c70 <intr_exit>
c00021a7:	66 90                	xchg   %ax,%ax
c00021a9:	66 90                	xchg   %ax,%ax
c00021ab:	66 90                	xchg   %ax,%ax
c00021ad:	66 90                	xchg   %ax,%ax
c00021af:	90                   	nop

c00021b0 <put_str>:
c00021b0:	53                   	push   %ebx
c00021b1:	51                   	push   %ecx
c00021b2:	31 c9                	xor    %ecx,%ecx
c00021b4:	8b 5c 24 0c          	mov    0xc(%esp),%ebx

c00021b8 <put_str.goon>:
c00021b8:	8a 0b                	mov    (%ebx),%cl
c00021ba:	80 f9 00             	cmp    $0x0,%cl
c00021bd:	74 0c                	je     c00021cb <put_str.str_over>
c00021bf:	51                   	push   %ecx
c00021c0:	e8 09 00 00 00       	call   c00021ce <put_char>
c00021c5:	83 c4 04             	add    $0x4,%esp
c00021c8:	43                   	inc    %ebx
c00021c9:	eb ed                	jmp    c00021b8 <put_str.goon>

c00021cb <put_str.str_over>:
c00021cb:	59                   	pop    %ecx
c00021cc:	5b                   	pop    %ebx
c00021cd:	c3                   	ret    

c00021ce <put_char>:
c00021ce:	60                   	pusha  
c00021cf:	66 b8 18 00          	mov    $0x18,%ax
c00021d3:	8e e8                	mov    %eax,%gs
c00021d5:	66 ba d4 03          	mov    $0x3d4,%dx
c00021d9:	b0 0e                	mov    $0xe,%al
c00021db:	ee                   	out    %al,(%dx)
c00021dc:	66 ba d5 03          	mov    $0x3d5,%dx
c00021e0:	ec                   	in     (%dx),%al
c00021e1:	88 c4                	mov    %al,%ah
c00021e3:	66 ba d4 03          	mov    $0x3d4,%dx
c00021e7:	b0 0f                	mov    $0xf,%al
c00021e9:	ee                   	out    %al,(%dx)
c00021ea:	66 ba d5 03          	mov    $0x3d5,%dx
c00021ee:	ec                   	in     (%dx),%al
c00021ef:	66 89 c3             	mov    %ax,%bx
c00021f2:	8b 4c 24 24          	mov    0x24(%esp),%ecx
c00021f6:	80 f9 0d             	cmp    $0xd,%cl
c00021f9:	74 3c                	je     c0002237 <put_char.is_carriage_return>
c00021fb:	80 f9 0a             	cmp    $0xa,%cl
c00021fe:	74 37                	je     c0002237 <put_char.is_carriage_return>
c0002200:	80 f9 08             	cmp    $0x8,%cl
c0002203:	74 02                	je     c0002207 <put_char.is_backspace>
c0002205:	eb 16                	jmp    c000221d <put_char.put_other>

c0002207 <put_char.is_backspace>:
c0002207:	66 4b                	dec    %bx
c0002209:	66 d1 e3             	shl    %bx
c000220c:	65 67 c6 07 20       	movb   $0x20,%gs:(%bx)
c0002211:	66 43                	inc    %bx
c0002213:	65 67 c6 07 07       	movb   $0x7,%gs:(%bx)
c0002218:	66 d1 eb             	shr    %bx
c000221b:	eb 60                	jmp    c000227d <put_char.set_cursor>

c000221d <put_char.put_other>:
c000221d:	66 d1 e3             	shl    %bx
c0002220:	65 67 88 0f          	mov    %cl,%gs:(%bx)
c0002224:	66 43                	inc    %bx
c0002226:	65 67 c6 07 07       	movb   $0x7,%gs:(%bx)
c000222b:	66 d1 eb             	shr    %bx
c000222e:	66 43                	inc    %bx
c0002230:	66 81 fb d0 07       	cmp    $0x7d0,%bx
c0002235:	7c 46                	jl     c000227d <put_char.set_cursor>

c0002237 <put_char.is_carriage_return>:
c0002237:	66 31 d2             	xor    %dx,%dx
c000223a:	66 89 d8             	mov    %bx,%ax
c000223d:	66 be 50 00          	mov    $0x50,%si
c0002241:	66 f7 f6             	div    %si
c0002244:	66 29 d3             	sub    %dx,%bx

c0002247 <put_char.is_carriage_return_end>:
c0002247:	66 83 c3 50          	add    $0x50,%bx
c000224b:	66 81 fb d0 07       	cmp    $0x7d0,%bx

c0002250 <put_char.is_line_feed_end>:
c0002250:	7c 2b                	jl     c000227d <put_char.set_cursor>

c0002252 <put_char.roll_screen>:
c0002252:	fc                   	cld    
c0002253:	b9 c0 03 00 00       	mov    $0x3c0,%ecx
c0002258:	be a0 80 0b 00       	mov    $0xb80a0,%esi
c000225d:	bf 00 80 0b 00       	mov    $0xb8000,%edi
c0002262:	f3 a5                	rep movsl %ds:(%esi),%es:(%edi)
c0002264:	bb 00 0f 00 00       	mov    $0xf00,%ebx
c0002269:	b9 50 00 00 00       	mov    $0x50,%ecx

c000226e <put_char.cls>:
c000226e:	65 66 c7 03 20 07    	movw   $0x720,%gs:(%ebx)
c0002274:	83 c3 02             	add    $0x2,%ebx
c0002277:	e2 f5                	loop   c000226e <put_char.cls>
c0002279:	66 bb 80 07          	mov    $0x780,%bx

c000227d <put_char.set_cursor>:
c000227d:	66 ba d4 03          	mov    $0x3d4,%dx
c0002281:	b0 0e                	mov    $0xe,%al
c0002283:	ee                   	out    %al,(%dx)
c0002284:	66 ba d5 03          	mov    $0x3d5,%dx
c0002288:	88 f8                	mov    %bh,%al
c000228a:	ee                   	out    %al,(%dx)
c000228b:	66 ba d4 03          	mov    $0x3d4,%dx
c000228f:	b0 0f                	mov    $0xf,%al
c0002291:	ee                   	out    %al,(%dx)
c0002292:	66 ba d5 03          	mov    $0x3d5,%dx
c0002296:	88 d8                	mov    %bl,%al
c0002298:	ee                   	out    %al,(%dx)

c0002299 <put_char.put_char_done>:
c0002299:	61                   	popa   
c000229a:	c3                   	ret    

c000229b <put_int>:
c000229b:	60                   	pusha  
c000229c:	89 e5                	mov    %esp,%ebp
c000229e:	8b 45 24             	mov    0x24(%ebp),%eax
c00022a1:	89 c2                	mov    %eax,%edx
c00022a3:	bf 07 00 00 00       	mov    $0x7,%edi
c00022a8:	b9 08 00 00 00       	mov    $0x8,%ecx
c00022ad:	bb c0 80 00 c0       	mov    $0xc00080c0,%ebx

c00022b2 <put_int.16based_4bits>:
c00022b2:	83 e2 0f             	and    $0xf,%edx
c00022b5:	83 fa 09             	cmp    $0x9,%edx
c00022b8:	7f 05                	jg     c00022bf <put_int.is_A2F>
c00022ba:	83 c2 30             	add    $0x30,%edx
c00022bd:	eb 06                	jmp    c00022c5 <put_int.store>

c00022bf <put_int.is_A2F>:
c00022bf:	83 ea 0a             	sub    $0xa,%edx
c00022c2:	83 c2 41             	add    $0x41,%edx

c00022c5 <put_int.store>:
c00022c5:	88 14 3b             	mov    %dl,(%ebx,%edi,1)
c00022c8:	4f                   	dec    %edi
c00022c9:	c1 e8 04             	shr    $0x4,%eax
c00022cc:	89 c2                	mov    %eax,%edx
c00022ce:	e2 e2                	loop   c00022b2 <put_int.16based_4bits>

c00022d0 <put_int.ready_to_print>:
c00022d0:	47                   	inc    %edi

c00022d1 <put_int.skip_prefix_0>:
c00022d1:	83 ff 08             	cmp    $0x8,%edi
c00022d4:	74 0f                	je     c00022e5 <put_int.full0>

c00022d6 <put_int.go_on_skip>:
c00022d6:	8a 8f c0 80 00 c0    	mov    -0x3fff7f40(%edi),%cl
c00022dc:	47                   	inc    %edi
c00022dd:	80 f9 30             	cmp    $0x30,%cl
c00022e0:	74 ef                	je     c00022d1 <put_int.skip_prefix_0>
c00022e2:	4f                   	dec    %edi
c00022e3:	eb 02                	jmp    c00022e7 <put_int.put_each_num>

c00022e5 <put_int.full0>:
c00022e5:	b1 30                	mov    $0x30,%cl

c00022e7 <put_int.put_each_num>:
c00022e7:	51                   	push   %ecx
c00022e8:	e8 e1 fe ff ff       	call   c00021ce <put_char>
c00022ed:	83 c4 04             	add    $0x4,%esp
c00022f0:	47                   	inc    %edi
c00022f1:	8a 8f c0 80 00 c0    	mov    -0x3fff7f40(%edi),%cl
c00022f7:	83 ff 08             	cmp    $0x8,%edi
c00022fa:	7c eb                	jl     c00022e7 <put_int.put_each_num>
c00022fc:	61                   	popa   
c00022fd:	c3                   	ret    

c00022fe <set_cursor>:
c00022fe:	60                   	pusha  
c00022ff:	66 8b 5c 24 24       	mov    0x24(%esp),%bx
c0002304:	66 ba d4 03          	mov    $0x3d4,%dx
c0002308:	b0 0e                	mov    $0xe,%al
c000230a:	ee                   	out    %al,(%dx)
c000230b:	66 ba d5 03          	mov    $0x3d5,%dx
c000230f:	88 f8                	mov    %bh,%al
c0002311:	ee                   	out    %al,(%dx)
c0002312:	66 ba d4 03          	mov    $0x3d4,%dx
c0002316:	b0 0f                	mov    $0xf,%al
c0002318:	ee                   	out    %al,(%dx)
c0002319:	66 ba d5 03          	mov    $0x3d5,%dx
c000231d:	88 d8                	mov    %bl,%al
c000231f:	ee                   	out    %al,(%dx)
c0002320:	61                   	popa   
c0002321:	c3                   	ret    

c0002322 <panic_spin>:
c0002322:	55                   	push   %ebp
c0002323:	89 e5                	mov    %esp,%ebp
c0002325:	83 ec 18             	sub    $0x18,%esp
c0002328:	e8 b9 f6 ff ff       	call   c00019e6 <intr_disable>
c000232d:	c7 04 24 0f 54 00 c0 	movl   $0xc000540f,(%esp)
c0002334:	e8 77 fe ff ff       	call   c00021b0 <put_str>
c0002339:	c7 04 24 25 54 00 c0 	movl   $0xc0005425,(%esp)
c0002340:	e8 6b fe ff ff       	call   c00021b0 <put_str>
c0002345:	8b 45 08             	mov    0x8(%ebp),%eax
c0002348:	89 04 24             	mov    %eax,(%esp)
c000234b:	e8 60 fe ff ff       	call   c00021b0 <put_str>
c0002350:	c7 04 24 2f 54 00 c0 	movl   $0xc000542f,(%esp)
c0002357:	e8 54 fe ff ff       	call   c00021b0 <put_str>
c000235c:	c7 04 24 31 54 00 c0 	movl   $0xc0005431,(%esp)
c0002363:	e8 48 fe ff ff       	call   c00021b0 <put_str>
c0002368:	8b 45 0c             	mov    0xc(%ebp),%eax
c000236b:	89 04 24             	mov    %eax,(%esp)
c000236e:	e8 28 ff ff ff       	call   c000229b <put_int>
c0002373:	c7 04 24 2f 54 00 c0 	movl   $0xc000542f,(%esp)
c000237a:	e8 31 fe ff ff       	call   c00021b0 <put_str>
c000237f:	c7 04 24 39 54 00 c0 	movl   $0xc0005439,(%esp)
c0002386:	e8 25 fe ff ff       	call   c00021b0 <put_str>
c000238b:	8b 45 10             	mov    0x10(%ebp),%eax
c000238e:	89 04 24             	mov    %eax,(%esp)
c0002391:	e8 1a fe ff ff       	call   c00021b0 <put_str>
c0002396:	c7 04 24 2f 54 00 c0 	movl   $0xc000542f,(%esp)
c000239d:	e8 0e fe ff ff       	call   c00021b0 <put_str>
c00023a2:	c7 04 24 43 54 00 c0 	movl   $0xc0005443,(%esp)
c00023a9:	e8 02 fe ff ff       	call   c00021b0 <put_str>
c00023ae:	8b 45 14             	mov    0x14(%ebp),%eax
c00023b1:	89 04 24             	mov    %eax,(%esp)
c00023b4:	e8 f7 fd ff ff       	call   c00021b0 <put_str>
c00023b9:	c7 04 24 2f 54 00 c0 	movl   $0xc000542f,(%esp)
c00023c0:	e8 eb fd ff ff       	call   c00021b0 <put_str>
c00023c5:	eb fe                	jmp    c00023c5 <panic_spin+0xa3>

c00023c7 <vaddr_get>:
c00023c7:	55                   	push   %ebp
c00023c8:	89 e5                	mov    %esp,%ebp
c00023ca:	83 ec 28             	sub    $0x28,%esp
c00023cd:	c7 45 f4 00 00 00 00 	movl   $0x0,-0xc(%ebp)
c00023d4:	c7 45 ec ff ff ff ff 	movl   $0xffffffff,-0x14(%ebp)
c00023db:	c7 45 f0 00 00 00 00 	movl   $0x0,-0x10(%ebp)
c00023e2:	83 7d 08 01          	cmpl   $0x1,0x8(%ebp)
c00023e6:	75 66                	jne    c000244e <vaddr_get+0x87>
c00023e8:	8b 45 0c             	mov    0xc(%ebp),%eax
c00023eb:	89 44 24 04          	mov    %eax,0x4(%esp)
c00023ef:	c7 04 24 8c 85 00 c0 	movl   $0xc000858c,(%esp)
c00023f6:	e8 46 08 00 00       	call   c0002c41 <bitmap_scan>
c00023fb:	89 45 ec             	mov    %eax,-0x14(%ebp)
c00023fe:	83 7d ec ff          	cmpl   $0xffffffff,-0x14(%ebp)
c0002402:	75 2c                	jne    c0002430 <vaddr_get+0x69>
c0002404:	b8 00 00 00 00       	mov    $0x0,%eax
c0002409:	e9 db 00 00 00       	jmp    c00024e9 <vaddr_get+0x122>
c000240e:	8b 45 ec             	mov    -0x14(%ebp),%eax
c0002411:	03 45 f0             	add    -0x10(%ebp),%eax
c0002414:	83 45 f0 01          	addl   $0x1,-0x10(%ebp)
c0002418:	c7 44 24 08 01 00 00 	movl   $0x1,0x8(%esp)
c000241f:	00 
c0002420:	89 44 24 04          	mov    %eax,0x4(%esp)
c0002424:	c7 04 24 8c 85 00 c0 	movl   $0xc000858c,(%esp)
c000242b:	e8 5e 09 00 00       	call   c0002d8e <bitmap_set>
c0002430:	8b 45 f0             	mov    -0x10(%ebp),%eax
c0002433:	3b 45 0c             	cmp    0xc(%ebp),%eax
c0002436:	72 d6                	jb     c000240e <vaddr_get+0x47>
c0002438:	8b 15 94 85 00 c0    	mov    0xc0008594,%edx
c000243e:	8b 45 ec             	mov    -0x14(%ebp),%eax
c0002441:	c1 e0 0c             	shl    $0xc,%eax
c0002444:	01 d0                	add    %edx,%eax
c0002446:	89 45 f4             	mov    %eax,-0xc(%ebp)
c0002449:	e9 98 00 00 00       	jmp    c00024e6 <vaddr_get+0x11f>
c000244e:	e8 48 0e 00 00       	call   c000329b <running_thread>
c0002453:	89 45 e8             	mov    %eax,-0x18(%ebp)
c0002456:	8b 45 e8             	mov    -0x18(%ebp),%eax
c0002459:	8d 50 34             	lea    0x34(%eax),%edx
c000245c:	8b 45 0c             	mov    0xc(%ebp),%eax
c000245f:	89 44 24 04          	mov    %eax,0x4(%esp)
c0002463:	89 14 24             	mov    %edx,(%esp)
c0002466:	e8 d6 07 00 00       	call   c0002c41 <bitmap_scan>
c000246b:	89 45 ec             	mov    %eax,-0x14(%ebp)
c000246e:	83 7d ec ff          	cmpl   $0xffffffff,-0x14(%ebp)
c0002472:	75 2b                	jne    c000249f <vaddr_get+0xd8>
c0002474:	b8 00 00 00 00       	mov    $0x0,%eax
c0002479:	eb 6e                	jmp    c00024e9 <vaddr_get+0x122>
c000247b:	8b 45 ec             	mov    -0x14(%ebp),%eax
c000247e:	03 45 f0             	add    -0x10(%ebp),%eax
c0002481:	83 45 f0 01          	addl   $0x1,-0x10(%ebp)
c0002485:	8b 55 e8             	mov    -0x18(%ebp),%edx
c0002488:	83 c2 34             	add    $0x34,%edx
c000248b:	c7 44 24 08 01 00 00 	movl   $0x1,0x8(%esp)
c0002492:	00 
c0002493:	89 44 24 04          	mov    %eax,0x4(%esp)
c0002497:	89 14 24             	mov    %edx,(%esp)
c000249a:	e8 ef 08 00 00       	call   c0002d8e <bitmap_set>
c000249f:	8b 45 f0             	mov    -0x10(%ebp),%eax
c00024a2:	3b 45 0c             	cmp    0xc(%ebp),%eax
c00024a5:	72 d4                	jb     c000247b <vaddr_get+0xb4>
c00024a7:	8b 45 e8             	mov    -0x18(%ebp),%eax
c00024aa:	8b 50 3c             	mov    0x3c(%eax),%edx
c00024ad:	8b 45 ec             	mov    -0x14(%ebp),%eax
c00024b0:	c1 e0 0c             	shl    $0xc,%eax
c00024b3:	01 d0                	add    %edx,%eax
c00024b5:	89 45 f4             	mov    %eax,-0xc(%ebp)
c00024b8:	8b 45 f4             	mov    -0xc(%ebp),%eax
c00024bb:	3d ff ef ff bf       	cmp    $0xbfffefff,%eax
c00024c0:	76 24                	jbe    c00024e6 <vaddr_get+0x11f>
c00024c2:	c7 44 24 0c 50 54 00 	movl   $0xc0005450,0xc(%esp)
c00024c9:	c0 
c00024ca:	c7 44 24 08 18 56 00 	movl   $0xc0005618,0x8(%esp)
c00024d1:	c0 
c00024d2:	c7 44 24 04 3d 00 00 	movl   $0x3d,0x4(%esp)
c00024d9:	00 
c00024da:	c7 04 24 7f 54 00 c0 	movl   $0xc000547f,(%esp)
c00024e1:	e8 3c fe ff ff       	call   c0002322 <panic_spin>
c00024e6:	8b 45 f4             	mov    -0xc(%ebp),%eax
c00024e9:	c9                   	leave  
c00024ea:	c3                   	ret    

c00024eb <pte_ptr>:
c00024eb:	55                   	push   %ebp
c00024ec:	89 e5                	mov    %esp,%ebp
c00024ee:	83 ec 10             	sub    $0x10,%esp
c00024f1:	8b 45 08             	mov    0x8(%ebp),%eax
c00024f4:	25 00 00 c0 ff       	and    $0xffc00000,%eax
c00024f9:	89 c2                	mov    %eax,%edx
c00024fb:	c1 ea 0a             	shr    $0xa,%edx
c00024fe:	8b 45 08             	mov    0x8(%ebp),%eax
c0002501:	25 00 f0 3f 00       	and    $0x3ff000,%eax
c0002506:	c1 e8 0c             	shr    $0xc,%eax
c0002509:	c1 e0 02             	shl    $0x2,%eax
c000250c:	01 d0                	add    %edx,%eax
c000250e:	2d 00 00 40 00       	sub    $0x400000,%eax
c0002513:	89 45 fc             	mov    %eax,-0x4(%ebp)
c0002516:	8b 45 fc             	mov    -0x4(%ebp),%eax
c0002519:	c9                   	leave  
c000251a:	c3                   	ret    

c000251b <pde_ptr>:
c000251b:	55                   	push   %ebp
c000251c:	89 e5                	mov    %esp,%ebp
c000251e:	83 ec 10             	sub    $0x10,%esp
c0002521:	8b 45 08             	mov    0x8(%ebp),%eax
c0002524:	c1 e8 16             	shr    $0x16,%eax
c0002527:	05 00 fc ff 3f       	add    $0x3ffffc00,%eax
c000252c:	c1 e0 02             	shl    $0x2,%eax
c000252f:	89 45 fc             	mov    %eax,-0x4(%ebp)
c0002532:	8b 45 fc             	mov    -0x4(%ebp),%eax
c0002535:	c9                   	leave  
c0002536:	c3                   	ret    

c0002537 <palloc>:
c0002537:	55                   	push   %ebp
c0002538:	89 e5                	mov    %esp,%ebp
c000253a:	83 ec 28             	sub    $0x28,%esp
c000253d:	8b 45 08             	mov    0x8(%ebp),%eax
c0002540:	c7 44 24 04 01 00 00 	movl   $0x1,0x4(%esp)
c0002547:	00 
c0002548:	89 04 24             	mov    %eax,(%esp)
c000254b:	e8 f1 06 00 00       	call   c0002c41 <bitmap_scan>
c0002550:	89 45 f4             	mov    %eax,-0xc(%ebp)
c0002553:	83 7d f4 ff          	cmpl   $0xffffffff,-0xc(%ebp)
c0002557:	75 07                	jne    c0002560 <palloc+0x29>
c0002559:	b8 00 00 00 00       	mov    $0x0,%eax
c000255e:	eb 30                	jmp    c0002590 <palloc+0x59>
c0002560:	8b 55 f4             	mov    -0xc(%ebp),%edx
c0002563:	8b 45 08             	mov    0x8(%ebp),%eax
c0002566:	c7 44 24 08 01 00 00 	movl   $0x1,0x8(%esp)
c000256d:	00 
c000256e:	89 54 24 04          	mov    %edx,0x4(%esp)
c0002572:	89 04 24             	mov    %eax,(%esp)
c0002575:	e8 14 08 00 00       	call   c0002d8e <bitmap_set>
c000257a:	8b 45 f4             	mov    -0xc(%ebp),%eax
c000257d:	c1 e0 0c             	shl    $0xc,%eax
c0002580:	89 c2                	mov    %eax,%edx
c0002582:	8b 45 08             	mov    0x8(%ebp),%eax
c0002585:	8b 40 08             	mov    0x8(%eax),%eax
c0002588:	01 d0                	add    %edx,%eax
c000258a:	89 45 f0             	mov    %eax,-0x10(%ebp)
c000258d:	8b 45 f0             	mov    -0x10(%ebp),%eax
c0002590:	c9                   	leave  
c0002591:	c3                   	ret    

c0002592 <page_table_add>:
c0002592:	55                   	push   %ebp
c0002593:	89 e5                	mov    %esp,%ebp
c0002595:	83 ec 38             	sub    $0x38,%esp
c0002598:	8b 45 08             	mov    0x8(%ebp),%eax
c000259b:	89 45 f4             	mov    %eax,-0xc(%ebp)
c000259e:	8b 45 0c             	mov    0xc(%ebp),%eax
c00025a1:	89 45 f0             	mov    %eax,-0x10(%ebp)
c00025a4:	8b 45 f4             	mov    -0xc(%ebp),%eax
c00025a7:	89 04 24             	mov    %eax,(%esp)
c00025aa:	e8 6c ff ff ff       	call   c000251b <pde_ptr>
c00025af:	89 45 ec             	mov    %eax,-0x14(%ebp)
c00025b2:	8b 45 f4             	mov    -0xc(%ebp),%eax
c00025b5:	89 04 24             	mov    %eax,(%esp)
c00025b8:	e8 2e ff ff ff       	call   c00024eb <pte_ptr>
c00025bd:	89 45 e8             	mov    %eax,-0x18(%ebp)
c00025c0:	8b 45 ec             	mov    -0x14(%ebp),%eax
c00025c3:	8b 00                	mov    (%eax),%eax
c00025c5:	83 e0 01             	and    $0x1,%eax
c00025c8:	84 c0                	test   %al,%al
c00025ca:	74 74                	je     c0002640 <page_table_add+0xae>
c00025cc:	8b 45 e8             	mov    -0x18(%ebp),%eax
c00025cf:	8b 00                	mov    (%eax),%eax
c00025d1:	83 e0 01             	and    $0x1,%eax
c00025d4:	85 c0                	test   %eax,%eax
c00025d6:	74 24                	je     c00025fc <page_table_add+0x6a>
c00025d8:	c7 44 24 0c 8f 54 00 	movl   $0xc000548f,0xc(%esp)
c00025df:	c0 
c00025e0:	c7 44 24 08 09 56 00 	movl   $0xc0005609,0x8(%esp)
c00025e7:	c0 
c00025e8:	c7 44 24 04 6e 00 00 	movl   $0x6e,0x4(%esp)
c00025ef:	00 
c00025f0:	c7 04 24 7f 54 00 c0 	movl   $0xc000547f,(%esp)
c00025f7:	e8 26 fd ff ff       	call   c0002322 <panic_spin>
c00025fc:	8b 45 e8             	mov    -0x18(%ebp),%eax
c00025ff:	8b 00                	mov    (%eax),%eax
c0002601:	83 e0 01             	and    $0x1,%eax
c0002604:	85 c0                	test   %eax,%eax
c0002606:	75 12                	jne    c000261a <page_table_add+0x88>
c0002608:	8b 45 f0             	mov    -0x10(%ebp),%eax
c000260b:	89 c2                	mov    %eax,%edx
c000260d:	83 ca 07             	or     $0x7,%edx
c0002610:	8b 45 e8             	mov    -0x18(%ebp),%eax
c0002613:	89 10                	mov    %edx,(%eax)
c0002615:	e9 9f 00 00 00       	jmp    c00026b9 <page_table_add+0x127>
c000261a:	c7 44 24 0c a4 54 00 	movl   $0xc00054a4,0xc(%esp)
c0002621:	c0 
c0002622:	c7 44 24 08 09 56 00 	movl   $0xc0005609,0x8(%esp)
c0002629:	c0 
c000262a:	c7 44 24 04 73 00 00 	movl   $0x73,0x4(%esp)
c0002631:	00 
c0002632:	c7 04 24 7f 54 00 c0 	movl   $0xc000547f,(%esp)
c0002639:	e8 e4 fc ff ff       	call   c0002322 <panic_spin>
c000263e:	eb 79                	jmp    c00026b9 <page_table_add+0x127>
c0002640:	c7 04 24 a0 85 00 c0 	movl   $0xc00085a0,(%esp)
c0002647:	e8 eb fe ff ff       	call   c0002537 <palloc>
c000264c:	89 45 e4             	mov    %eax,-0x1c(%ebp)
c000264f:	8b 45 e4             	mov    -0x1c(%ebp),%eax
c0002652:	89 c2                	mov    %eax,%edx
c0002654:	83 ca 07             	or     $0x7,%edx
c0002657:	8b 45 ec             	mov    -0x14(%ebp),%eax
c000265a:	89 10                	mov    %edx,(%eax)
c000265c:	8b 45 e8             	mov    -0x18(%ebp),%eax
c000265f:	25 00 f0 ff ff       	and    $0xfffff000,%eax
c0002664:	c7 44 24 08 00 10 00 	movl   $0x1000,0x8(%esp)
c000266b:	00 
c000266c:	c7 44 24 04 00 00 00 	movl   $0x0,0x4(%esp)
c0002673:	00 
c0002674:	89 04 24             	mov    %eax,(%esp)
c0002677:	e8 cb 07 00 00       	call   c0002e47 <memset>
c000267c:	8b 45 e8             	mov    -0x18(%ebp),%eax
c000267f:	8b 00                	mov    (%eax),%eax
c0002681:	83 e0 01             	and    $0x1,%eax
c0002684:	85 c0                	test   %eax,%eax
c0002686:	74 24                	je     c00026ac <page_table_add+0x11a>
c0002688:	c7 44 24 0c 8f 54 00 	movl   $0xc000548f,0xc(%esp)
c000268f:	c0 
c0002690:	c7 44 24 08 09 56 00 	movl   $0xc0005609,0x8(%esp)
c0002697:	c0 
c0002698:	c7 44 24 04 80 00 00 	movl   $0x80,0x4(%esp)
c000269f:	00 
c00026a0:	c7 04 24 7f 54 00 c0 	movl   $0xc000547f,(%esp)
c00026a7:	e8 76 fc ff ff       	call   c0002322 <panic_spin>
c00026ac:	8b 45 f0             	mov    -0x10(%ebp),%eax
c00026af:	89 c2                	mov    %eax,%edx
c00026b1:	83 ca 07             	or     $0x7,%edx
c00026b4:	8b 45 e8             	mov    -0x18(%ebp),%eax
c00026b7:	89 10                	mov    %edx,(%eax)
c00026b9:	c9                   	leave  
c00026ba:	c3                   	ret    

c00026bb <malloc_page>:
c00026bb:	55                   	push   %ebp
c00026bc:	89 e5                	mov    %esp,%ebp
c00026be:	83 ec 38             	sub    $0x38,%esp
c00026c1:	83 7d 0c 00          	cmpl   $0x0,0xc(%ebp)
c00026c5:	74 09                	je     c00026d0 <malloc_page+0x15>
c00026c7:	81 7d 0c ff 0e 00 00 	cmpl   $0xeff,0xc(%ebp)
c00026ce:	76 24                	jbe    c00026f4 <malloc_page+0x39>
c00026d0:	c7 44 24 0c af 54 00 	movl   $0xc00054af,0xc(%esp)
c00026d7:	c0 
c00026d8:	c7 44 24 08 fd 55 00 	movl   $0xc00055fd,0x8(%esp)
c00026df:	c0 
c00026e0:	c7 44 24 04 87 00 00 	movl   $0x87,0x4(%esp)
c00026e7:	00 
c00026e8:	c7 04 24 7f 54 00 c0 	movl   $0xc000547f,(%esp)
c00026ef:	e8 2e fc ff ff       	call   c0002322 <panic_spin>
c00026f4:	8b 45 0c             	mov    0xc(%ebp),%eax
c00026f7:	89 44 24 04          	mov    %eax,0x4(%esp)
c00026fb:	8b 45 08             	mov    0x8(%ebp),%eax
c00026fe:	89 04 24             	mov    %eax,(%esp)
c0002701:	e8 c1 fc ff ff       	call   c00023c7 <vaddr_get>
c0002706:	89 45 ec             	mov    %eax,-0x14(%ebp)
c0002709:	83 7d ec 00          	cmpl   $0x0,-0x14(%ebp)
c000270d:	75 07                	jne    c0002716 <malloc_page+0x5b>
c000270f:	b8 00 00 00 00       	mov    $0x0,%eax
c0002714:	eb 6d                	jmp    c0002783 <malloc_page+0xc8>
c0002716:	8b 45 ec             	mov    -0x14(%ebp),%eax
c0002719:	89 45 f4             	mov    %eax,-0xc(%ebp)
c000271c:	8b 45 0c             	mov    0xc(%ebp),%eax
c000271f:	89 45 f0             	mov    %eax,-0x10(%ebp)
c0002722:	8b 45 08             	mov    0x8(%ebp),%eax
c0002725:	83 e0 01             	and    $0x1,%eax
c0002728:	84 c0                	test   %al,%al
c000272a:	74 07                	je     c0002733 <malloc_page+0x78>
c000272c:	b8 a0 85 00 c0       	mov    $0xc00085a0,%eax
c0002731:	eb 05                	jmp    c0002738 <malloc_page+0x7d>
c0002733:	b8 60 85 00 c0       	mov    $0xc0008560,%eax
c0002738:	89 45 e8             	mov    %eax,-0x18(%ebp)
c000273b:	eb 34                	jmp    c0002771 <malloc_page+0xb6>
c000273d:	8b 45 e8             	mov    -0x18(%ebp),%eax
c0002740:	89 04 24             	mov    %eax,(%esp)
c0002743:	e8 ef fd ff ff       	call   c0002537 <palloc>
c0002748:	89 45 e4             	mov    %eax,-0x1c(%ebp)
c000274b:	83 7d e4 00          	cmpl   $0x0,-0x1c(%ebp)
c000274f:	75 07                	jne    c0002758 <malloc_page+0x9d>
c0002751:	b8 00 00 00 00       	mov    $0x0,%eax
c0002756:	eb 2b                	jmp    c0002783 <malloc_page+0xc8>
c0002758:	8b 45 f4             	mov    -0xc(%ebp),%eax
c000275b:	8b 55 e4             	mov    -0x1c(%ebp),%edx
c000275e:	89 54 24 04          	mov    %edx,0x4(%esp)
c0002762:	89 04 24             	mov    %eax,(%esp)
c0002765:	e8 28 fe ff ff       	call   c0002592 <page_table_add>
c000276a:	81 45 f4 00 10 00 00 	addl   $0x1000,-0xc(%ebp)
c0002771:	83 7d f0 00          	cmpl   $0x0,-0x10(%ebp)
c0002775:	0f 95 c0             	setne  %al
c0002778:	83 6d f0 01          	subl   $0x1,-0x10(%ebp)
c000277c:	84 c0                	test   %al,%al
c000277e:	75 bd                	jne    c000273d <malloc_page+0x82>
c0002780:	8b 45 ec             	mov    -0x14(%ebp),%eax
c0002783:	c9                   	leave  
c0002784:	c3                   	ret    

c0002785 <get_kernel_pages>:
c0002785:	55                   	push   %ebp
c0002786:	89 e5                	mov    %esp,%ebp
c0002788:	83 ec 28             	sub    $0x28,%esp
c000278b:	c7 04 24 b0 85 00 c0 	movl   $0xc00085b0,(%esp)
c0002792:	e8 58 15 00 00       	call   c0003cef <lock_acquire>
c0002797:	8b 45 08             	mov    0x8(%ebp),%eax
c000279a:	89 44 24 04          	mov    %eax,0x4(%esp)
c000279e:	c7 04 24 01 00 00 00 	movl   $0x1,(%esp)
c00027a5:	e8 11 ff ff ff       	call   c00026bb <malloc_page>
c00027aa:	89 45 f4             	mov    %eax,-0xc(%ebp)
c00027ad:	83 7d f4 00          	cmpl   $0x0,-0xc(%ebp)
c00027b1:	74 1d                	je     c00027d0 <get_kernel_pages+0x4b>
c00027b3:	8b 45 08             	mov    0x8(%ebp),%eax
c00027b6:	c1 e0 0c             	shl    $0xc,%eax
c00027b9:	89 44 24 08          	mov    %eax,0x8(%esp)
c00027bd:	c7 44 24 04 00 00 00 	movl   $0x0,0x4(%esp)
c00027c4:	00 
c00027c5:	8b 45 f4             	mov    -0xc(%ebp),%eax
c00027c8:	89 04 24             	mov    %eax,(%esp)
c00027cb:	e8 77 06 00 00       	call   c0002e47 <memset>
c00027d0:	c7 04 24 b0 85 00 c0 	movl   $0xc00085b0,(%esp)
c00027d7:	e8 8f 15 00 00       	call   c0003d6b <lock_release>
c00027dc:	8b 45 f4             	mov    -0xc(%ebp),%eax
c00027df:	c9                   	leave  
c00027e0:	c3                   	ret    

c00027e1 <get_user_pages>:
c00027e1:	55                   	push   %ebp
c00027e2:	89 e5                	mov    %esp,%ebp
c00027e4:	83 ec 28             	sub    $0x28,%esp
c00027e7:	c7 04 24 70 85 00 c0 	movl   $0xc0008570,(%esp)
c00027ee:	e8 fc 14 00 00       	call   c0003cef <lock_acquire>
c00027f3:	8b 45 08             	mov    0x8(%ebp),%eax
c00027f6:	89 44 24 04          	mov    %eax,0x4(%esp)
c00027fa:	c7 04 24 02 00 00 00 	movl   $0x2,(%esp)
c0002801:	e8 b5 fe ff ff       	call   c00026bb <malloc_page>
c0002806:	89 45 f4             	mov    %eax,-0xc(%ebp)
c0002809:	8b 45 08             	mov    0x8(%ebp),%eax
c000280c:	c1 e0 0c             	shl    $0xc,%eax
c000280f:	89 44 24 08          	mov    %eax,0x8(%esp)
c0002813:	c7 44 24 04 00 00 00 	movl   $0x0,0x4(%esp)
c000281a:	00 
c000281b:	8b 45 f4             	mov    -0xc(%ebp),%eax
c000281e:	89 04 24             	mov    %eax,(%esp)
c0002821:	e8 21 06 00 00       	call   c0002e47 <memset>
c0002826:	c7 04 24 70 85 00 c0 	movl   $0xc0008570,(%esp)
c000282d:	e8 39 15 00 00       	call   c0003d6b <lock_release>
c0002832:	8b 45 f4             	mov    -0xc(%ebp),%eax
c0002835:	c9                   	leave  
c0002836:	c3                   	ret    

c0002837 <get_a_page>:
c0002837:	55                   	push   %ebp
c0002838:	89 e5                	mov    %esp,%ebp
c000283a:	83 ec 28             	sub    $0x28,%esp
c000283d:	8b 45 08             	mov    0x8(%ebp),%eax
c0002840:	83 e0 01             	and    $0x1,%eax
c0002843:	84 c0                	test   %al,%al
c0002845:	74 07                	je     c000284e <get_a_page+0x17>
c0002847:	b8 a0 85 00 c0       	mov    $0xc00085a0,%eax
c000284c:	eb 05                	jmp    c0002853 <get_a_page+0x1c>
c000284e:	b8 60 85 00 c0       	mov    $0xc0008560,%eax
c0002853:	89 45 f4             	mov    %eax,-0xc(%ebp)
c0002856:	8b 45 f4             	mov    -0xc(%ebp),%eax
c0002859:	83 c0 10             	add    $0x10,%eax
c000285c:	89 04 24             	mov    %eax,(%esp)
c000285f:	e8 8b 14 00 00       	call   c0003cef <lock_acquire>
c0002864:	e8 32 0a 00 00       	call   c000329b <running_thread>
c0002869:	89 45 f0             	mov    %eax,-0x10(%ebp)
c000286c:	c7 45 ec ff ff ff ff 	movl   $0xffffffff,-0x14(%ebp)
c0002873:	8b 45 f0             	mov    -0x10(%ebp),%eax
c0002876:	8b 40 30             	mov    0x30(%eax),%eax
c0002879:	85 c0                	test   %eax,%eax
c000287b:	74 67                	je     c00028e4 <get_a_page+0xad>
c000287d:	83 7d 08 02          	cmpl   $0x2,0x8(%ebp)
c0002881:	75 61                	jne    c00028e4 <get_a_page+0xad>
c0002883:	8b 45 f0             	mov    -0x10(%ebp),%eax
c0002886:	8b 40 3c             	mov    0x3c(%eax),%eax
c0002889:	8b 55 0c             	mov    0xc(%ebp),%edx
c000288c:	89 d1                	mov    %edx,%ecx
c000288e:	29 c1                	sub    %eax,%ecx
c0002890:	89 c8                	mov    %ecx,%eax
c0002892:	c1 e8 0c             	shr    $0xc,%eax
c0002895:	89 45 ec             	mov    %eax,-0x14(%ebp)
c0002898:	83 7d ec 00          	cmpl   $0x0,-0x14(%ebp)
c000289c:	7f 24                	jg     c00028c2 <get_a_page+0x8b>
c000289e:	c7 44 24 0c cb 54 00 	movl   $0xc00054cb,0xc(%esp)
c00028a5:	c0 
c00028a6:	c7 44 24 08 f2 55 00 	movl   $0xc00055f2,0x8(%esp)
c00028ad:	c0 
c00028ae:	c7 44 24 04 c5 00 00 	movl   $0xc5,0x4(%esp)
c00028b5:	00 
c00028b6:	c7 04 24 7f 54 00 c0 	movl   $0xc000547f,(%esp)
c00028bd:	e8 60 fa ff ff       	call   c0002322 <panic_spin>
c00028c2:	8b 45 ec             	mov    -0x14(%ebp),%eax
c00028c5:	8b 55 f0             	mov    -0x10(%ebp),%edx
c00028c8:	83 c2 34             	add    $0x34,%edx
c00028cb:	c7 44 24 08 01 00 00 	movl   $0x1,0x8(%esp)
c00028d2:	00 
c00028d3:	89 44 24 04          	mov    %eax,0x4(%esp)
c00028d7:	89 14 24             	mov    %edx,(%esp)
c00028da:	e8 af 04 00 00       	call   c0002d8e <bitmap_set>
c00028df:	e9 8f 00 00 00       	jmp    c0002973 <get_a_page+0x13c>
c00028e4:	8b 45 f0             	mov    -0x10(%ebp),%eax
c00028e7:	8b 40 30             	mov    0x30(%eax),%eax
c00028ea:	85 c0                	test   %eax,%eax
c00028ec:	75 61                	jne    c000294f <get_a_page+0x118>
c00028ee:	83 7d 08 01          	cmpl   $0x1,0x8(%ebp)
c00028f2:	75 5b                	jne    c000294f <get_a_page+0x118>
c00028f4:	a1 94 85 00 c0       	mov    0xc0008594,%eax
c00028f9:	8b 55 0c             	mov    0xc(%ebp),%edx
c00028fc:	89 d1                	mov    %edx,%ecx
c00028fe:	29 c1                	sub    %eax,%ecx
c0002900:	89 c8                	mov    %ecx,%eax
c0002902:	c1 e8 0c             	shr    $0xc,%eax
c0002905:	89 45 ec             	mov    %eax,-0x14(%ebp)
c0002908:	83 7d ec 00          	cmpl   $0x0,-0x14(%ebp)
c000290c:	7f 24                	jg     c0002932 <get_a_page+0xfb>
c000290e:	c7 44 24 0c cb 54 00 	movl   $0xc00054cb,0xc(%esp)
c0002915:	c0 
c0002916:	c7 44 24 08 f2 55 00 	movl   $0xc00055f2,0x8(%esp)
c000291d:	c0 
c000291e:	c7 44 24 04 cb 00 00 	movl   $0xcb,0x4(%esp)
c0002925:	00 
c0002926:	c7 04 24 7f 54 00 c0 	movl   $0xc000547f,(%esp)
c000292d:	e8 f0 f9 ff ff       	call   c0002322 <panic_spin>
c0002932:	8b 45 ec             	mov    -0x14(%ebp),%eax
c0002935:	c7 44 24 08 01 00 00 	movl   $0x1,0x8(%esp)
c000293c:	00 
c000293d:	89 44 24 04          	mov    %eax,0x4(%esp)
c0002941:	c7 04 24 8c 85 00 c0 	movl   $0xc000858c,(%esp)
c0002948:	e8 41 04 00 00       	call   c0002d8e <bitmap_set>
c000294d:	eb 24                	jmp    c0002973 <get_a_page+0x13c>
c000294f:	c7 44 24 0c d8 54 00 	movl   $0xc00054d8,0xc(%esp)
c0002956:	c0 
c0002957:	c7 44 24 08 f2 55 00 	movl   $0xc00055f2,0x8(%esp)
c000295e:	c0 
c000295f:	c7 44 24 04 ce 00 00 	movl   $0xce,0x4(%esp)
c0002966:	00 
c0002967:	c7 04 24 7f 54 00 c0 	movl   $0xc000547f,(%esp)
c000296e:	e8 af f9 ff ff       	call   c0002322 <panic_spin>
c0002973:	8b 45 f4             	mov    -0xc(%ebp),%eax
c0002976:	89 04 24             	mov    %eax,(%esp)
c0002979:	e8 b9 fb ff ff       	call   c0002537 <palloc>
c000297e:	89 45 e8             	mov    %eax,-0x18(%ebp)
c0002981:	83 7d e8 00          	cmpl   $0x0,-0x18(%ebp)
c0002985:	75 07                	jne    c000298e <get_a_page+0x157>
c0002987:	b8 00 00 00 00       	mov    $0x0,%eax
c000298c:	eb 23                	jmp    c00029b1 <get_a_page+0x17a>
c000298e:	8b 45 0c             	mov    0xc(%ebp),%eax
c0002991:	8b 55 e8             	mov    -0x18(%ebp),%edx
c0002994:	89 54 24 04          	mov    %edx,0x4(%esp)
c0002998:	89 04 24             	mov    %eax,(%esp)
c000299b:	e8 f2 fb ff ff       	call   c0002592 <page_table_add>
c00029a0:	8b 45 f4             	mov    -0xc(%ebp),%eax
c00029a3:	83 c0 10             	add    $0x10,%eax
c00029a6:	89 04 24             	mov    %eax,(%esp)
c00029a9:	e8 bd 13 00 00       	call   c0003d6b <lock_release>
c00029ae:	8b 45 0c             	mov    0xc(%ebp),%eax
c00029b1:	c9                   	leave  
c00029b2:	c3                   	ret    

c00029b3 <addr_v2p>:
c00029b3:	55                   	push   %ebp
c00029b4:	89 e5                	mov    %esp,%ebp
c00029b6:	83 ec 14             	sub    $0x14,%esp
c00029b9:	8b 45 08             	mov    0x8(%ebp),%eax
c00029bc:	89 04 24             	mov    %eax,(%esp)
c00029bf:	e8 27 fb ff ff       	call   c00024eb <pte_ptr>
c00029c4:	89 45 fc             	mov    %eax,-0x4(%ebp)
c00029c7:	8b 45 fc             	mov    -0x4(%ebp),%eax
c00029ca:	8b 00                	mov    (%eax),%eax
c00029cc:	89 c2                	mov    %eax,%edx
c00029ce:	81 e2 00 f0 ff ff    	and    $0xfffff000,%edx
c00029d4:	8b 45 08             	mov    0x8(%ebp),%eax
c00029d7:	25 ff 0f 00 00       	and    $0xfff,%eax
c00029dc:	01 d0                	add    %edx,%eax
c00029de:	c9                   	leave  
c00029df:	c3                   	ret    

c00029e0 <mem_pool_init>:
c00029e0:	55                   	push   %ebp
c00029e1:	89 e5                	mov    %esp,%ebp
c00029e3:	83 ec 48             	sub    $0x48,%esp
c00029e6:	c7 04 24 2c 55 00 c0 	movl   $0xc000552c,(%esp)
c00029ed:	e8 be f7 ff ff       	call   c00021b0 <put_str>
c00029f2:	c7 45 f4 00 00 10 00 	movl   $0x100000,-0xc(%ebp)
c00029f9:	8b 45 f4             	mov    -0xc(%ebp),%eax
c00029fc:	05 00 00 10 00       	add    $0x100000,%eax
c0002a01:	89 45 f0             	mov    %eax,-0x10(%ebp)
c0002a04:	8b 45 f0             	mov    -0x10(%ebp),%eax
c0002a07:	8b 55 08             	mov    0x8(%ebp),%edx
c0002a0a:	89 d1                	mov    %edx,%ecx
c0002a0c:	29 c1                	sub    %eax,%ecx
c0002a0e:	89 c8                	mov    %ecx,%eax
c0002a10:	89 45 ec             	mov    %eax,-0x14(%ebp)
c0002a13:	8b 45 ec             	mov    -0x14(%ebp),%eax
c0002a16:	c1 e8 0c             	shr    $0xc,%eax
c0002a19:	66 89 45 ea          	mov    %ax,-0x16(%ebp)
c0002a1d:	0f b7 45 ea          	movzwl -0x16(%ebp),%eax
c0002a21:	66 d1 e8             	shr    %ax
c0002a24:	66 89 45 e8          	mov    %ax,-0x18(%ebp)
c0002a28:	0f b7 45 e8          	movzwl -0x18(%ebp),%eax
c0002a2c:	0f b7 55 ea          	movzwl -0x16(%ebp),%edx
c0002a30:	89 d1                	mov    %edx,%ecx
c0002a32:	66 29 c1             	sub    %ax,%cx
c0002a35:	89 c8                	mov    %ecx,%eax
c0002a37:	66 89 45 e6          	mov    %ax,-0x1a(%ebp)
c0002a3b:	0f b7 45 e8          	movzwl -0x18(%ebp),%eax
c0002a3f:	66 c1 e8 03          	shr    $0x3,%ax
c0002a43:	0f b7 c0             	movzwl %ax,%eax
c0002a46:	89 45 e0             	mov    %eax,-0x20(%ebp)
c0002a49:	0f b7 45 e6          	movzwl -0x1a(%ebp),%eax
c0002a4d:	66 c1 e8 03          	shr    $0x3,%ax
c0002a51:	0f b7 c0             	movzwl %ax,%eax
c0002a54:	89 45 dc             	mov    %eax,-0x24(%ebp)
c0002a57:	8b 45 f0             	mov    -0x10(%ebp),%eax
c0002a5a:	89 45 d8             	mov    %eax,-0x28(%ebp)
c0002a5d:	0f b7 45 e8          	movzwl -0x18(%ebp),%eax
c0002a61:	c1 e0 0c             	shl    $0xc,%eax
c0002a64:	03 45 d8             	add    -0x28(%ebp),%eax
c0002a67:	89 45 d4             	mov    %eax,-0x2c(%ebp)
c0002a6a:	8b 45 d8             	mov    -0x28(%ebp),%eax
c0002a6d:	a3 a8 85 00 c0       	mov    %eax,0xc00085a8
c0002a72:	8b 45 d4             	mov    -0x2c(%ebp),%eax
c0002a75:	a3 68 85 00 c0       	mov    %eax,0xc0008568
c0002a7a:	0f b7 45 e8          	movzwl -0x18(%ebp),%eax
c0002a7e:	c1 e0 0c             	shl    $0xc,%eax
c0002a81:	a3 ac 85 00 c0       	mov    %eax,0xc00085ac
c0002a86:	0f b7 45 e6          	movzwl -0x1a(%ebp),%eax
c0002a8a:	c1 e0 0c             	shl    $0xc,%eax
c0002a8d:	a3 6c 85 00 c0       	mov    %eax,0xc000856c
c0002a92:	8b 45 e0             	mov    -0x20(%ebp),%eax
c0002a95:	a3 a0 85 00 c0       	mov    %eax,0xc00085a0
c0002a9a:	8b 45 dc             	mov    -0x24(%ebp),%eax
c0002a9d:	a3 60 85 00 c0       	mov    %eax,0xc0008560
c0002aa2:	c7 05 a4 85 00 c0 00 	movl   $0xc009a000,0xc00085a4
c0002aa9:	a0 09 c0 
c0002aac:	8b 45 e0             	mov    -0x20(%ebp),%eax
c0002aaf:	2d 00 60 f6 3f       	sub    $0x3ff66000,%eax
c0002ab4:	a3 64 85 00 c0       	mov    %eax,0xc0008564
c0002ab9:	c7 04 24 44 55 00 c0 	movl   $0xc0005544,(%esp)
c0002ac0:	e8 eb f6 ff ff       	call   c00021b0 <put_str>
c0002ac5:	a1 a4 85 00 c0       	mov    0xc00085a4,%eax
c0002aca:	89 04 24             	mov    %eax,(%esp)
c0002acd:	e8 c9 f7 ff ff       	call   c000229b <put_int>
c0002ad2:	c7 04 24 64 55 00 c0 	movl   $0xc0005564,(%esp)
c0002ad9:	e8 d2 f6 ff ff       	call   c00021b0 <put_str>
c0002ade:	a1 a8 85 00 c0       	mov    0xc00085a8,%eax
c0002ae3:	89 04 24             	mov    %eax,(%esp)
c0002ae6:	e8 b0 f7 ff ff       	call   c000229b <put_int>
c0002aeb:	c7 04 24 81 55 00 c0 	movl   $0xc0005581,(%esp)
c0002af2:	e8 b9 f6 ff ff       	call   c00021b0 <put_str>
c0002af7:	c7 04 24 83 55 00 c0 	movl   $0xc0005583,(%esp)
c0002afe:	e8 ad f6 ff ff       	call   c00021b0 <put_str>
c0002b03:	a1 64 85 00 c0       	mov    0xc0008564,%eax
c0002b08:	89 04 24             	mov    %eax,(%esp)
c0002b0b:	e8 8b f7 ff ff       	call   c000229b <put_int>
c0002b10:	c7 04 24 a1 55 00 c0 	movl   $0xc00055a1,(%esp)
c0002b17:	e8 94 f6 ff ff       	call   c00021b0 <put_str>
c0002b1c:	a1 68 85 00 c0       	mov    0xc0008568,%eax
c0002b21:	89 04 24             	mov    %eax,(%esp)
c0002b24:	e8 72 f7 ff ff       	call   c000229b <put_int>
c0002b29:	c7 04 24 81 55 00 c0 	movl   $0xc0005581,(%esp)
c0002b30:	e8 7b f6 ff ff       	call   c00021b0 <put_str>
c0002b35:	c7 04 24 a0 85 00 c0 	movl   $0xc00085a0,(%esp)
c0002b3c:	e8 97 00 00 00       	call   c0002bd8 <bitmap_init>
c0002b41:	c7 04 24 60 85 00 c0 	movl   $0xc0008560,(%esp)
c0002b48:	e8 8b 00 00 00       	call   c0002bd8 <bitmap_init>
c0002b4d:	c7 04 24 b0 85 00 c0 	movl   $0xc00085b0,(%esp)
c0002b54:	e8 9b 0f 00 00       	call   c0003af4 <lock_init>
c0002b59:	c7 04 24 70 85 00 c0 	movl   $0xc0008570,(%esp)
c0002b60:	e8 8f 0f 00 00       	call   c0003af4 <lock_init>
c0002b65:	8b 45 e0             	mov    -0x20(%ebp),%eax
c0002b68:	a3 8c 85 00 c0       	mov    %eax,0xc000858c
c0002b6d:	8b 45 dc             	mov    -0x24(%ebp),%eax
c0002b70:	8b 55 e0             	mov    -0x20(%ebp),%edx
c0002b73:	01 d0                	add    %edx,%eax
c0002b75:	2d 00 60 f6 3f       	sub    $0x3ff66000,%eax
c0002b7a:	a3 90 85 00 c0       	mov    %eax,0xc0008590
c0002b7f:	c7 05 94 85 00 c0 00 	movl   $0xc0100000,0xc0008594
c0002b86:	00 10 c0 
c0002b89:	c7 04 24 8c 85 00 c0 	movl   $0xc000858c,(%esp)
c0002b90:	e8 43 00 00 00       	call   c0002bd8 <bitmap_init>
c0002b95:	c7 04 24 bc 55 00 c0 	movl   $0xc00055bc,(%esp)
c0002b9c:	e8 0f f6 ff ff       	call   c00021b0 <put_str>
c0002ba1:	c9                   	leave  
c0002ba2:	c3                   	ret    

c0002ba3 <mem_init>:
c0002ba3:	55                   	push   %ebp
c0002ba4:	89 e5                	mov    %esp,%ebp
c0002ba6:	83 ec 28             	sub    $0x28,%esp
c0002ba9:	c7 04 24 d3 55 00 c0 	movl   $0xc00055d3,(%esp)
c0002bb0:	e8 fb f5 ff ff       	call   c00021b0 <put_str>
c0002bb5:	b8 00 0b 00 00       	mov    $0xb00,%eax
c0002bba:	8b 00                	mov    (%eax),%eax
c0002bbc:	89 45 f4             	mov    %eax,-0xc(%ebp)
c0002bbf:	8b 45 f4             	mov    -0xc(%ebp),%eax
c0002bc2:	89 04 24             	mov    %eax,(%esp)
c0002bc5:	e8 16 fe ff ff       	call   c00029e0 <mem_pool_init>
c0002bca:	c7 04 24 e3 55 00 c0 	movl   $0xc00055e3,(%esp)
c0002bd1:	e8 da f5 ff ff       	call   c00021b0 <put_str>
c0002bd6:	c9                   	leave  
c0002bd7:	c3                   	ret    

c0002bd8 <bitmap_init>:
c0002bd8:	55                   	push   %ebp
c0002bd9:	89 e5                	mov    %esp,%ebp
c0002bdb:	83 ec 18             	sub    $0x18,%esp
c0002bde:	8b 45 08             	mov    0x8(%ebp),%eax
c0002be1:	8b 10                	mov    (%eax),%edx
c0002be3:	8b 45 08             	mov    0x8(%ebp),%eax
c0002be6:	8b 40 04             	mov    0x4(%eax),%eax
c0002be9:	89 54 24 08          	mov    %edx,0x8(%esp)
c0002bed:	c7 44 24 04 00 00 00 	movl   $0x0,0x4(%esp)
c0002bf4:	00 
c0002bf5:	89 04 24             	mov    %eax,(%esp)
c0002bf8:	e8 4a 02 00 00       	call   c0002e47 <memset>
c0002bfd:	c9                   	leave  
c0002bfe:	c3                   	ret    

c0002bff <bitmap_scan_test>:
c0002bff:	55                   	push   %ebp
c0002c00:	89 e5                	mov    %esp,%ebp
c0002c02:	56                   	push   %esi
c0002c03:	53                   	push   %ebx
c0002c04:	83 ec 10             	sub    $0x10,%esp
c0002c07:	8b 45 0c             	mov    0xc(%ebp),%eax
c0002c0a:	c1 e8 03             	shr    $0x3,%eax
c0002c0d:	89 45 f4             	mov    %eax,-0xc(%ebp)
c0002c10:	8b 45 0c             	mov    0xc(%ebp),%eax
c0002c13:	83 e0 07             	and    $0x7,%eax
c0002c16:	89 45 f0             	mov    %eax,-0x10(%ebp)
c0002c19:	8b 45 08             	mov    0x8(%ebp),%eax
c0002c1c:	8b 40 04             	mov    0x4(%eax),%eax
c0002c1f:	03 45 f4             	add    -0xc(%ebp),%eax
c0002c22:	0f b6 00             	movzbl (%eax),%eax
c0002c25:	0f b6 d0             	movzbl %al,%edx
c0002c28:	8b 45 f0             	mov    -0x10(%ebp),%eax
c0002c2b:	bb 01 00 00 00       	mov    $0x1,%ebx
c0002c30:	89 de                	mov    %ebx,%esi
c0002c32:	89 c1                	mov    %eax,%ecx
c0002c34:	d3 e6                	shl    %cl,%esi
c0002c36:	89 f0                	mov    %esi,%eax
c0002c38:	21 d0                	and    %edx,%eax
c0002c3a:	83 c4 10             	add    $0x10,%esp
c0002c3d:	5b                   	pop    %ebx
c0002c3e:	5e                   	pop    %esi
c0002c3f:	5d                   	pop    %ebp
c0002c40:	c3                   	ret    

c0002c41 <bitmap_scan>:
c0002c41:	55                   	push   %ebp
c0002c42:	89 e5                	mov    %esp,%ebp
c0002c44:	53                   	push   %ebx
c0002c45:	83 ec 34             	sub    $0x34,%esp
c0002c48:	c7 45 f4 00 00 00 00 	movl   $0x0,-0xc(%ebp)
c0002c4f:	eb 04                	jmp    c0002c55 <bitmap_scan+0x14>
c0002c51:	83 45 f4 01          	addl   $0x1,-0xc(%ebp)
c0002c55:	8b 45 08             	mov    0x8(%ebp),%eax
c0002c58:	8b 40 04             	mov    0x4(%eax),%eax
c0002c5b:	03 45 f4             	add    -0xc(%ebp),%eax
c0002c5e:	0f b6 00             	movzbl (%eax),%eax
c0002c61:	3c ff                	cmp    $0xff,%al
c0002c63:	75 0a                	jne    c0002c6f <bitmap_scan+0x2e>
c0002c65:	8b 45 08             	mov    0x8(%ebp),%eax
c0002c68:	8b 00                	mov    (%eax),%eax
c0002c6a:	3b 45 f4             	cmp    -0xc(%ebp),%eax
c0002c6d:	77 e2                	ja     c0002c51 <bitmap_scan+0x10>
c0002c6f:	8b 45 08             	mov    0x8(%ebp),%eax
c0002c72:	8b 00                	mov    (%eax),%eax
c0002c74:	3b 45 f4             	cmp    -0xc(%ebp),%eax
c0002c77:	77 24                	ja     c0002c9d <bitmap_scan+0x5c>
c0002c79:	c7 44 24 0c 24 56 00 	movl   $0xc0005624,0xc(%esp)
c0002c80:	c0 
c0002c81:	c7 44 24 08 80 56 00 	movl   $0xc0005680,0x8(%esp)
c0002c88:	c0 
c0002c89:	c7 44 24 04 1d 00 00 	movl   $0x1d,0x4(%esp)
c0002c90:	00 
c0002c91:	c7 04 24 44 56 00 c0 	movl   $0xc0005644,(%esp)
c0002c98:	e8 85 f6 ff ff       	call   c0002322 <panic_spin>
c0002c9d:	8b 45 08             	mov    0x8(%ebp),%eax
c0002ca0:	8b 00                	mov    (%eax),%eax
c0002ca2:	3b 45 f4             	cmp    -0xc(%ebp),%eax
c0002ca5:	75 0a                	jne    c0002cb1 <bitmap_scan+0x70>
c0002ca7:	b8 ff ff ff ff       	mov    $0xffffffff,%eax
c0002cac:	e9 d7 00 00 00       	jmp    c0002d88 <bitmap_scan+0x147>
c0002cb1:	c7 45 f0 00 00 00 00 	movl   $0x0,-0x10(%ebp)
c0002cb8:	eb 04                	jmp    c0002cbe <bitmap_scan+0x7d>
c0002cba:	83 45 f0 01          	addl   $0x1,-0x10(%ebp)
c0002cbe:	8b 45 f0             	mov    -0x10(%ebp),%eax
c0002cc1:	ba 01 00 00 00       	mov    $0x1,%edx
c0002cc6:	89 d3                	mov    %edx,%ebx
c0002cc8:	89 c1                	mov    %eax,%ecx
c0002cca:	d3 e3                	shl    %cl,%ebx
c0002ccc:	89 d8                	mov    %ebx,%eax
c0002cce:	89 c2                	mov    %eax,%edx
c0002cd0:	8b 45 08             	mov    0x8(%ebp),%eax
c0002cd3:	8b 40 04             	mov    0x4(%eax),%eax
c0002cd6:	03 45 f4             	add    -0xc(%ebp),%eax
c0002cd9:	0f b6 00             	movzbl (%eax),%eax
c0002cdc:	21 d0                	and    %edx,%eax
c0002cde:	84 c0                	test   %al,%al
c0002ce0:	75 d8                	jne    c0002cba <bitmap_scan+0x79>
c0002ce2:	8b 45 f4             	mov    -0xc(%ebp),%eax
c0002ce5:	8d 14 c5 00 00 00 00 	lea    0x0(,%eax,8),%edx
c0002cec:	8b 45 f0             	mov    -0x10(%ebp),%eax
c0002cef:	01 d0                	add    %edx,%eax
c0002cf1:	89 45 ec             	mov    %eax,-0x14(%ebp)
c0002cf4:	83 7d 0c 01          	cmpl   $0x1,0xc(%ebp)
c0002cf8:	75 08                	jne    c0002d02 <bitmap_scan+0xc1>
c0002cfa:	8b 45 ec             	mov    -0x14(%ebp),%eax
c0002cfd:	e9 86 00 00 00       	jmp    c0002d88 <bitmap_scan+0x147>
c0002d02:	8b 45 08             	mov    0x8(%ebp),%eax
c0002d05:	8b 00                	mov    (%eax),%eax
c0002d07:	8d 14 c5 00 00 00 00 	lea    0x0(,%eax,8),%edx
c0002d0e:	8b 45 ec             	mov    -0x14(%ebp),%eax
c0002d11:	89 d1                	mov    %edx,%ecx
c0002d13:	29 c1                	sub    %eax,%ecx
c0002d15:	89 c8                	mov    %ecx,%eax
c0002d17:	89 45 e8             	mov    %eax,-0x18(%ebp)
c0002d1a:	8b 45 ec             	mov    -0x14(%ebp),%eax
c0002d1d:	83 c0 01             	add    $0x1,%eax
c0002d20:	89 45 e4             	mov    %eax,-0x1c(%ebp)
c0002d23:	c7 45 e0 01 00 00 00 	movl   $0x1,-0x20(%ebp)
c0002d2a:	c7 45 ec ff ff ff ff 	movl   $0xffffffff,-0x14(%ebp)
c0002d31:	eb 43                	jmp    c0002d76 <bitmap_scan+0x135>
c0002d33:	8b 45 e4             	mov    -0x1c(%ebp),%eax
c0002d36:	89 44 24 04          	mov    %eax,0x4(%esp)
c0002d3a:	8b 45 08             	mov    0x8(%ebp),%eax
c0002d3d:	89 04 24             	mov    %eax,(%esp)
c0002d40:	e8 ba fe ff ff       	call   c0002bff <bitmap_scan_test>
c0002d45:	85 c0                	test   %eax,%eax
c0002d47:	75 06                	jne    c0002d4f <bitmap_scan+0x10e>
c0002d49:	83 45 e0 01          	addl   $0x1,-0x20(%ebp)
c0002d4d:	eb 07                	jmp    c0002d56 <bitmap_scan+0x115>
c0002d4f:	c7 45 e0 00 00 00 00 	movl   $0x0,-0x20(%ebp)
c0002d56:	8b 45 e0             	mov    -0x20(%ebp),%eax
c0002d59:	3b 45 0c             	cmp    0xc(%ebp),%eax
c0002d5c:	75 14                	jne    c0002d72 <bitmap_scan+0x131>
c0002d5e:	8b 45 0c             	mov    0xc(%ebp),%eax
c0002d61:	8b 55 e4             	mov    -0x1c(%ebp),%edx
c0002d64:	89 d3                	mov    %edx,%ebx
c0002d66:	29 c3                	sub    %eax,%ebx
c0002d68:	89 d8                	mov    %ebx,%eax
c0002d6a:	83 c0 01             	add    $0x1,%eax
c0002d6d:	89 45 ec             	mov    %eax,-0x14(%ebp)
c0002d70:	eb 13                	jmp    c0002d85 <bitmap_scan+0x144>
c0002d72:	83 45 e4 01          	addl   $0x1,-0x1c(%ebp)
c0002d76:	83 7d e8 00          	cmpl   $0x0,-0x18(%ebp)
c0002d7a:	0f 95 c0             	setne  %al
c0002d7d:	83 6d e8 01          	subl   $0x1,-0x18(%ebp)
c0002d81:	84 c0                	test   %al,%al
c0002d83:	75 ae                	jne    c0002d33 <bitmap_scan+0xf2>
c0002d85:	8b 45 ec             	mov    -0x14(%ebp),%eax
c0002d88:	83 c4 34             	add    $0x34,%esp
c0002d8b:	5b                   	pop    %ebx
c0002d8c:	5d                   	pop    %ebp
c0002d8d:	c3                   	ret    

c0002d8e <bitmap_set>:
c0002d8e:	55                   	push   %ebp
c0002d8f:	89 e5                	mov    %esp,%ebp
c0002d91:	57                   	push   %edi
c0002d92:	56                   	push   %esi
c0002d93:	53                   	push   %ebx
c0002d94:	83 ec 3c             	sub    $0x3c,%esp
c0002d97:	8b 45 10             	mov    0x10(%ebp),%eax
c0002d9a:	88 45 d4             	mov    %al,-0x2c(%ebp)
c0002d9d:	80 7d d4 00          	cmpb   $0x0,-0x2c(%ebp)
c0002da1:	74 2a                	je     c0002dcd <bitmap_set+0x3f>
c0002da3:	80 7d d4 01          	cmpb   $0x1,-0x2c(%ebp)
c0002da7:	74 24                	je     c0002dcd <bitmap_set+0x3f>
c0002da9:	c7 44 24 0c 58 56 00 	movl   $0xc0005658,0xc(%esp)
c0002db0:	c0 
c0002db1:	c7 44 24 08 75 56 00 	movl   $0xc0005675,0x8(%esp)
c0002db8:	c0 
c0002db9:	c7 44 24 04 45 00 00 	movl   $0x45,0x4(%esp)
c0002dc0:	00 
c0002dc1:	c7 04 24 44 56 00 c0 	movl   $0xc0005644,(%esp)
c0002dc8:	e8 55 f5 ff ff       	call   c0002322 <panic_spin>
c0002dcd:	8b 45 0c             	mov    0xc(%ebp),%eax
c0002dd0:	c1 e8 03             	shr    $0x3,%eax
c0002dd3:	89 45 e4             	mov    %eax,-0x1c(%ebp)
c0002dd6:	8b 45 0c             	mov    0xc(%ebp),%eax
c0002dd9:	83 e0 07             	and    $0x7,%eax
c0002ddc:	89 45 e0             	mov    %eax,-0x20(%ebp)
c0002ddf:	80 7d d4 00          	cmpb   $0x0,-0x2c(%ebp)
c0002de3:	74 2d                	je     c0002e12 <bitmap_set+0x84>
c0002de5:	8b 45 08             	mov    0x8(%ebp),%eax
c0002de8:	8b 40 04             	mov    0x4(%eax),%eax
c0002deb:	03 45 e4             	add    -0x1c(%ebp),%eax
c0002dee:	8b 55 08             	mov    0x8(%ebp),%edx
c0002df1:	8b 52 04             	mov    0x4(%edx),%edx
c0002df4:	03 55 e4             	add    -0x1c(%ebp),%edx
c0002df7:	0f b6 12             	movzbl (%edx),%edx
c0002dfa:	89 d3                	mov    %edx,%ebx
c0002dfc:	8b 55 e0             	mov    -0x20(%ebp),%edx
c0002dff:	be 01 00 00 00       	mov    $0x1,%esi
c0002e04:	89 f7                	mov    %esi,%edi
c0002e06:	89 d1                	mov    %edx,%ecx
c0002e08:	d3 e7                	shl    %cl,%edi
c0002e0a:	89 fa                	mov    %edi,%edx
c0002e0c:	09 da                	or     %ebx,%edx
c0002e0e:	88 10                	mov    %dl,(%eax)
c0002e10:	eb 2d                	jmp    c0002e3f <bitmap_set+0xb1>
c0002e12:	8b 45 08             	mov    0x8(%ebp),%eax
c0002e15:	8b 40 04             	mov    0x4(%eax),%eax
c0002e18:	03 45 e4             	add    -0x1c(%ebp),%eax
c0002e1b:	8b 55 08             	mov    0x8(%ebp),%edx
c0002e1e:	8b 52 04             	mov    0x4(%edx),%edx
c0002e21:	03 55 e4             	add    -0x1c(%ebp),%edx
c0002e24:	0f b6 12             	movzbl (%edx),%edx
c0002e27:	89 d3                	mov    %edx,%ebx
c0002e29:	8b 55 e0             	mov    -0x20(%ebp),%edx
c0002e2c:	be 01 00 00 00       	mov    $0x1,%esi
c0002e31:	89 f7                	mov    %esi,%edi
c0002e33:	89 d1                	mov    %edx,%ecx
c0002e35:	d3 e7                	shl    %cl,%edi
c0002e37:	89 fa                	mov    %edi,%edx
c0002e39:	f7 d2                	not    %edx
c0002e3b:	21 da                	and    %ebx,%edx
c0002e3d:	88 10                	mov    %dl,(%eax)
c0002e3f:	83 c4 3c             	add    $0x3c,%esp
c0002e42:	5b                   	pop    %ebx
c0002e43:	5e                   	pop    %esi
c0002e44:	5f                   	pop    %edi
c0002e45:	5d                   	pop    %ebp
c0002e46:	c3                   	ret    

c0002e47 <memset>:
c0002e47:	55                   	push   %ebp
c0002e48:	89 e5                	mov    %esp,%ebp
c0002e4a:	83 ec 38             	sub    $0x38,%esp
c0002e4d:	8b 45 0c             	mov    0xc(%ebp),%eax
c0002e50:	88 45 e4             	mov    %al,-0x1c(%ebp)
c0002e53:	83 7d 08 00          	cmpl   $0x0,0x8(%ebp)
c0002e57:	75 24                	jne    c0002e7d <memset+0x36>
c0002e59:	c7 44 24 0c 8c 56 00 	movl   $0xc000568c,0xc(%esp)
c0002e60:	c0 
c0002e61:	c7 44 24 08 3e 57 00 	movl   $0xc000573e,0x8(%esp)
c0002e68:	c0 
c0002e69:	c7 44 24 04 07 00 00 	movl   $0x7,0x4(%esp)
c0002e70:	00 
c0002e71:	c7 04 24 99 56 00 c0 	movl   $0xc0005699,(%esp)
c0002e78:	e8 a5 f4 ff ff       	call   c0002322 <panic_spin>
c0002e7d:	8b 45 08             	mov    0x8(%ebp),%eax
c0002e80:	89 45 f4             	mov    %eax,-0xc(%ebp)
c0002e83:	eb 0d                	jmp    c0002e92 <memset+0x4b>
c0002e85:	8b 45 f4             	mov    -0xc(%ebp),%eax
c0002e88:	0f b6 55 e4          	movzbl -0x1c(%ebp),%edx
c0002e8c:	88 10                	mov    %dl,(%eax)
c0002e8e:	83 45 f4 01          	addl   $0x1,-0xc(%ebp)
c0002e92:	83 7d 10 00          	cmpl   $0x0,0x10(%ebp)
c0002e96:	0f 95 c0             	setne  %al
c0002e99:	83 6d 10 01          	subl   $0x1,0x10(%ebp)
c0002e9d:	84 c0                	test   %al,%al
c0002e9f:	75 e4                	jne    c0002e85 <memset+0x3e>
c0002ea1:	c9                   	leave  
c0002ea2:	c3                   	ret    

c0002ea3 <memcpy>:
c0002ea3:	55                   	push   %ebp
c0002ea4:	89 e5                	mov    %esp,%ebp
c0002ea6:	83 ec 28             	sub    $0x28,%esp
c0002ea9:	83 7d 08 00          	cmpl   $0x0,0x8(%ebp)
c0002ead:	74 06                	je     c0002eb5 <memcpy+0x12>
c0002eaf:	83 7d 0c 00          	cmpl   $0x0,0xc(%ebp)
c0002eb3:	75 24                	jne    c0002ed9 <memcpy+0x36>
c0002eb5:	c7 44 24 0c a6 56 00 	movl   $0xc00056a6,0xc(%esp)
c0002ebc:	c0 
c0002ebd:	c7 44 24 08 37 57 00 	movl   $0xc0005737,0x8(%esp)
c0002ec4:	c0 
c0002ec5:	c7 44 24 04 0f 00 00 	movl   $0xf,0x4(%esp)
c0002ecc:	00 
c0002ecd:	c7 04 24 99 56 00 c0 	movl   $0xc0005699,(%esp)
c0002ed4:	e8 49 f4 ff ff       	call   c0002322 <panic_spin>
c0002ed9:	8b 45 08             	mov    0x8(%ebp),%eax
c0002edc:	89 45 f4             	mov    %eax,-0xc(%ebp)
c0002edf:	8b 45 0c             	mov    0xc(%ebp),%eax
c0002ee2:	89 45 f0             	mov    %eax,-0x10(%ebp)
c0002ee5:	eb 13                	jmp    c0002efa <memcpy+0x57>
c0002ee7:	8b 45 f0             	mov    -0x10(%ebp),%eax
c0002eea:	0f b6 10             	movzbl (%eax),%edx
c0002eed:	8b 45 f4             	mov    -0xc(%ebp),%eax
c0002ef0:	88 10                	mov    %dl,(%eax)
c0002ef2:	83 45 f4 01          	addl   $0x1,-0xc(%ebp)
c0002ef6:	83 45 f0 01          	addl   $0x1,-0x10(%ebp)
c0002efa:	83 7d 10 00          	cmpl   $0x0,0x10(%ebp)
c0002efe:	0f 95 c0             	setne  %al
c0002f01:	83 6d 10 01          	subl   $0x1,0x10(%ebp)
c0002f05:	84 c0                	test   %al,%al
c0002f07:	75 de                	jne    c0002ee7 <memcpy+0x44>
c0002f09:	c9                   	leave  
c0002f0a:	c3                   	ret    

c0002f0b <memcmp>:
c0002f0b:	55                   	push   %ebp
c0002f0c:	89 e5                	mov    %esp,%ebp
c0002f0e:	83 ec 28             	sub    $0x28,%esp
c0002f11:	8b 45 08             	mov    0x8(%ebp),%eax
c0002f14:	89 45 f4             	mov    %eax,-0xc(%ebp)
c0002f17:	8b 45 0c             	mov    0xc(%ebp),%eax
c0002f1a:	89 45 f0             	mov    %eax,-0x10(%ebp)
c0002f1d:	83 7d f4 00          	cmpl   $0x0,-0xc(%ebp)
c0002f21:	75 64                	jne    c0002f87 <memcmp+0x7c>
c0002f23:	83 7d f0 00          	cmpl   $0x0,-0x10(%ebp)
c0002f27:	75 5e                	jne    c0002f87 <memcmp+0x7c>
c0002f29:	c7 44 24 0c c3 56 00 	movl   $0xc00056c3,0xc(%esp)
c0002f30:	c0 
c0002f31:	c7 44 24 08 30 57 00 	movl   $0xc0005730,0x8(%esp)
c0002f38:	c0 
c0002f39:	c7 44 24 04 1a 00 00 	movl   $0x1a,0x4(%esp)
c0002f40:	00 
c0002f41:	c7 04 24 99 56 00 c0 	movl   $0xc0005699,(%esp)
c0002f48:	e8 d5 f3 ff ff       	call   c0002322 <panic_spin>
c0002f4d:	eb 38                	jmp    c0002f87 <memcmp+0x7c>
c0002f4f:	8b 45 f4             	mov    -0xc(%ebp),%eax
c0002f52:	0f b6 10             	movzbl (%eax),%edx
c0002f55:	8b 45 f0             	mov    -0x10(%ebp),%eax
c0002f58:	0f b6 00             	movzbl (%eax),%eax
c0002f5b:	38 c2                	cmp    %al,%dl
c0002f5d:	74 1e                	je     c0002f7d <memcmp+0x72>
c0002f5f:	8b 45 f4             	mov    -0xc(%ebp),%eax
c0002f62:	0f b6 10             	movzbl (%eax),%edx
c0002f65:	8b 45 f0             	mov    -0x10(%ebp),%eax
c0002f68:	0f b6 00             	movzbl (%eax),%eax
c0002f6b:	38 c2                	cmp    %al,%dl
c0002f6d:	7e 07                	jle    c0002f76 <memcmp+0x6b>
c0002f6f:	b8 01 00 00 00       	mov    $0x1,%eax
c0002f74:	eb 05                	jmp    c0002f7b <memcmp+0x70>
c0002f76:	b8 ff ff ff ff       	mov    $0xffffffff,%eax
c0002f7b:	eb 1f                	jmp    c0002f9c <memcmp+0x91>
c0002f7d:	83 45 f4 01          	addl   $0x1,-0xc(%ebp)
c0002f81:	83 45 f0 01          	addl   $0x1,-0x10(%ebp)
c0002f85:	eb 01                	jmp    c0002f88 <memcmp+0x7d>
c0002f87:	90                   	nop
c0002f88:	83 7d 10 00          	cmpl   $0x0,0x10(%ebp)
c0002f8c:	0f 95 c0             	setne  %al
c0002f8f:	83 6d 10 01          	subl   $0x1,0x10(%ebp)
c0002f93:	84 c0                	test   %al,%al
c0002f95:	75 b8                	jne    c0002f4f <memcmp+0x44>
c0002f97:	b8 00 00 00 00       	mov    $0x0,%eax
c0002f9c:	c9                   	leave  
c0002f9d:	c3                   	ret    

c0002f9e <strcpy>:
c0002f9e:	55                   	push   %ebp
c0002f9f:	89 e5                	mov    %esp,%ebp
c0002fa1:	83 ec 28             	sub    $0x28,%esp
c0002fa4:	83 7d 08 00          	cmpl   $0x0,0x8(%ebp)
c0002fa8:	74 06                	je     c0002fb0 <strcpy+0x12>
c0002faa:	83 7d 0c 00          	cmpl   $0x0,0xc(%ebp)
c0002fae:	75 24                	jne    c0002fd4 <strcpy+0x36>
c0002fb0:	c7 44 24 0c a6 56 00 	movl   $0xc00056a6,0xc(%esp)
c0002fb7:	c0 
c0002fb8:	c7 44 24 08 29 57 00 	movl   $0xc0005729,0x8(%esp)
c0002fbf:	c0 
c0002fc0:	c7 44 24 04 27 00 00 	movl   $0x27,0x4(%esp)
c0002fc7:	00 
c0002fc8:	c7 04 24 99 56 00 c0 	movl   $0xc0005699,(%esp)
c0002fcf:	e8 4e f3 ff ff       	call   c0002322 <panic_spin>
c0002fd4:	8b 45 08             	mov    0x8(%ebp),%eax
c0002fd7:	89 45 f4             	mov    %eax,-0xc(%ebp)
c0002fda:	90                   	nop
c0002fdb:	8b 45 0c             	mov    0xc(%ebp),%eax
c0002fde:	0f b6 10             	movzbl (%eax),%edx
c0002fe1:	8b 45 08             	mov    0x8(%ebp),%eax
c0002fe4:	88 10                	mov    %dl,(%eax)
c0002fe6:	8b 45 08             	mov    0x8(%ebp),%eax
c0002fe9:	0f b6 00             	movzbl (%eax),%eax
c0002fec:	84 c0                	test   %al,%al
c0002fee:	0f 95 c0             	setne  %al
c0002ff1:	83 45 08 01          	addl   $0x1,0x8(%ebp)
c0002ff5:	83 45 0c 01          	addl   $0x1,0xc(%ebp)
c0002ff9:	84 c0                	test   %al,%al
c0002ffb:	75 de                	jne    c0002fdb <strcpy+0x3d>
c0002ffd:	8b 45 f4             	mov    -0xc(%ebp),%eax
c0003000:	c9                   	leave  
c0003001:	c3                   	ret    

c0003002 <strlen>:
c0003002:	55                   	push   %ebp
c0003003:	89 e5                	mov    %esp,%ebp
c0003005:	83 ec 28             	sub    $0x28,%esp
c0003008:	83 7d 08 00          	cmpl   $0x0,0x8(%ebp)
c000300c:	75 24                	jne    c0003032 <strlen+0x30>
c000300e:	c7 44 24 0c da 56 00 	movl   $0xc00056da,0xc(%esp)
c0003015:	c0 
c0003016:	c7 44 24 08 22 57 00 	movl   $0xc0005722,0x8(%esp)
c000301d:	c0 
c000301e:	c7 44 24 04 2f 00 00 	movl   $0x2f,0x4(%esp)
c0003025:	00 
c0003026:	c7 04 24 99 56 00 c0 	movl   $0xc0005699,(%esp)
c000302d:	e8 f0 f2 ff ff       	call   c0002322 <panic_spin>
c0003032:	8b 45 08             	mov    0x8(%ebp),%eax
c0003035:	89 45 f4             	mov    %eax,-0xc(%ebp)
c0003038:	90                   	nop
c0003039:	8b 45 f4             	mov    -0xc(%ebp),%eax
c000303c:	0f b6 00             	movzbl (%eax),%eax
c000303f:	84 c0                	test   %al,%al
c0003041:	0f 95 c0             	setne  %al
c0003044:	83 45 f4 01          	addl   $0x1,-0xc(%ebp)
c0003048:	84 c0                	test   %al,%al
c000304a:	75 ed                	jne    c0003039 <strlen+0x37>
c000304c:	8b 55 f4             	mov    -0xc(%ebp),%edx
c000304f:	8b 45 08             	mov    0x8(%ebp),%eax
c0003052:	89 d1                	mov    %edx,%ecx
c0003054:	29 c1                	sub    %eax,%ecx
c0003056:	89 c8                	mov    %ecx,%eax
c0003058:	83 e8 01             	sub    $0x1,%eax
c000305b:	c9                   	leave  
c000305c:	c3                   	ret    

c000305d <strcmp>:
c000305d:	55                   	push   %ebp
c000305e:	89 e5                	mov    %esp,%ebp
c0003060:	83 ec 18             	sub    $0x18,%esp
c0003063:	83 7d 08 00          	cmpl   $0x0,0x8(%ebp)
c0003067:	74 06                	je     c000306f <strcmp+0x12>
c0003069:	83 7d 0c 00          	cmpl   $0x0,0xc(%ebp)
c000306d:	75 26                	jne    c0003095 <strcmp+0x38>
c000306f:	c7 44 24 0c e6 56 00 	movl   $0xc00056e6,0xc(%esp)
c0003076:	c0 
c0003077:	c7 44 24 08 1b 57 00 	movl   $0xc000571b,0x8(%esp)
c000307e:	c0 
c000307f:	c7 44 24 04 37 00 00 	movl   $0x37,0x4(%esp)
c0003086:	00 
c0003087:	c7 04 24 99 56 00 c0 	movl   $0xc0005699,(%esp)
c000308e:	e8 8f f2 ff ff       	call   c0002322 <panic_spin>
c0003093:	eb 0a                	jmp    c000309f <strcmp+0x42>
c0003095:	eb 08                	jmp    c000309f <strcmp+0x42>
c0003097:	83 45 08 01          	addl   $0x1,0x8(%ebp)
c000309b:	83 45 0c 01          	addl   $0x1,0xc(%ebp)
c000309f:	8b 45 08             	mov    0x8(%ebp),%eax
c00030a2:	0f b6 00             	movzbl (%eax),%eax
c00030a5:	84 c0                	test   %al,%al
c00030a7:	74 10                	je     c00030b9 <strcmp+0x5c>
c00030a9:	8b 45 08             	mov    0x8(%ebp),%eax
c00030ac:	0f b6 10             	movzbl (%eax),%edx
c00030af:	8b 45 0c             	mov    0xc(%ebp),%eax
c00030b2:	0f b6 00             	movzbl (%eax),%eax
c00030b5:	38 c2                	cmp    %al,%dl
c00030b7:	74 de                	je     c0003097 <strcmp+0x3a>
c00030b9:	8b 45 08             	mov    0x8(%ebp),%eax
c00030bc:	0f b6 10             	movzbl (%eax),%edx
c00030bf:	8b 45 0c             	mov    0xc(%ebp),%eax
c00030c2:	0f b6 00             	movzbl (%eax),%eax
c00030c5:	38 c2                	cmp    %al,%dl
c00030c7:	7c 13                	jl     c00030dc <strcmp+0x7f>
c00030c9:	8b 45 08             	mov    0x8(%ebp),%eax
c00030cc:	0f b6 10             	movzbl (%eax),%edx
c00030cf:	8b 45 0c             	mov    0xc(%ebp),%eax
c00030d2:	0f b6 00             	movzbl (%eax),%eax
c00030d5:	38 c2                	cmp    %al,%dl
c00030d7:	0f 9f c0             	setg   %al
c00030da:	eb 05                	jmp    c00030e1 <strcmp+0x84>
c00030dc:	b8 ff ff ff ff       	mov    $0xffffffff,%eax
c00030e1:	c9                   	leave  
c00030e2:	c3                   	ret    

c00030e3 <strchr>:
c00030e3:	55                   	push   %ebp
c00030e4:	89 e5                	mov    %esp,%ebp
c00030e6:	83 ec 28             	sub    $0x28,%esp
c00030e9:	8b 45 0c             	mov    0xc(%ebp),%eax
c00030ec:	88 45 f4             	mov    %al,-0xc(%ebp)
c00030ef:	83 7d 08 00          	cmpl   $0x0,0x8(%ebp)
c00030f3:	75 42                	jne    c0003137 <strchr+0x54>
c00030f5:	c7 44 24 0c da 56 00 	movl   $0xc00056da,0xc(%esp)
c00030fc:	c0 
c00030fd:	c7 44 24 08 14 57 00 	movl   $0xc0005714,0x8(%esp)
c0003104:	c0 
c0003105:	c7 44 24 04 43 00 00 	movl   $0x43,0x4(%esp)
c000310c:	00 
c000310d:	c7 04 24 99 56 00 c0 	movl   $0xc0005699,(%esp)
c0003114:	e8 09 f2 ff ff       	call   c0002322 <panic_spin>
c0003119:	eb 1c                	jmp    c0003137 <strchr+0x54>
c000311b:	8b 45 08             	mov    0x8(%ebp),%eax
c000311e:	0f b6 00             	movzbl (%eax),%eax
c0003121:	0f be d0             	movsbl %al,%edx
c0003124:	0f b6 45 f4          	movzbl -0xc(%ebp),%eax
c0003128:	39 c2                	cmp    %eax,%edx
c000312a:	75 05                	jne    c0003131 <strchr+0x4e>
c000312c:	8b 45 08             	mov    0x8(%ebp),%eax
c000312f:	eb 16                	jmp    c0003147 <strchr+0x64>
c0003131:	83 45 08 01          	addl   $0x1,0x8(%ebp)
c0003135:	eb 01                	jmp    c0003138 <strchr+0x55>
c0003137:	90                   	nop
c0003138:	8b 45 08             	mov    0x8(%ebp),%eax
c000313b:	0f b6 00             	movzbl (%eax),%eax
c000313e:	84 c0                	test   %al,%al
c0003140:	75 d9                	jne    c000311b <strchr+0x38>
c0003142:	b8 00 00 00 00       	mov    $0x0,%eax
c0003147:	c9                   	leave  
c0003148:	c3                   	ret    

c0003149 <strrchr>:
c0003149:	55                   	push   %ebp
c000314a:	89 e5                	mov    %esp,%ebp
c000314c:	83 ec 38             	sub    $0x38,%esp
c000314f:	8b 45 0c             	mov    0xc(%ebp),%eax
c0003152:	88 45 e4             	mov    %al,-0x1c(%ebp)
c0003155:	83 7d 08 00          	cmpl   $0x0,0x8(%ebp)
c0003159:	75 24                	jne    c000317f <strrchr+0x36>
c000315b:	c7 44 24 0c da 56 00 	movl   $0xc00056da,0xc(%esp)
c0003162:	c0 
c0003163:	c7 44 24 08 0c 57 00 	movl   $0xc000570c,0x8(%esp)
c000316a:	c0 
c000316b:	c7 44 24 04 4f 00 00 	movl   $0x4f,0x4(%esp)
c0003172:	00 
c0003173:	c7 04 24 99 56 00 c0 	movl   $0xc0005699,(%esp)
c000317a:	e8 a3 f1 ff ff       	call   c0002322 <panic_spin>
c000317f:	c7 45 f4 00 00 00 00 	movl   $0x0,-0xc(%ebp)
c0003186:	eb 1b                	jmp    c00031a3 <strrchr+0x5a>
c0003188:	8b 45 08             	mov    0x8(%ebp),%eax
c000318b:	0f b6 00             	movzbl (%eax),%eax
c000318e:	0f be d0             	movsbl %al,%edx
c0003191:	0f b6 45 e4          	movzbl -0x1c(%ebp),%eax
c0003195:	39 c2                	cmp    %eax,%edx
c0003197:	75 06                	jne    c000319f <strrchr+0x56>
c0003199:	8b 45 08             	mov    0x8(%ebp),%eax
c000319c:	89 45 f4             	mov    %eax,-0xc(%ebp)
c000319f:	83 45 08 01          	addl   $0x1,0x8(%ebp)
c00031a3:	8b 45 08             	mov    0x8(%ebp),%eax
c00031a6:	0f b6 00             	movzbl (%eax),%eax
c00031a9:	84 c0                	test   %al,%al
c00031ab:	75 db                	jne    c0003188 <strrchr+0x3f>
c00031ad:	8b 45 f4             	mov    -0xc(%ebp),%eax
c00031b0:	c9                   	leave  
c00031b1:	c3                   	ret    

c00031b2 <strcat>:
c00031b2:	55                   	push   %ebp
c00031b3:	89 e5                	mov    %esp,%ebp
c00031b5:	83 ec 28             	sub    $0x28,%esp
c00031b8:	83 7d 08 00          	cmpl   $0x0,0x8(%ebp)
c00031bc:	74 06                	je     c00031c4 <strcat+0x12>
c00031be:	83 7d 0c 00          	cmpl   $0x0,0xc(%ebp)
c00031c2:	75 24                	jne    c00031e8 <strcat+0x36>
c00031c4:	c7 44 24 0c a6 56 00 	movl   $0xc00056a6,0xc(%esp)
c00031cb:	c0 
c00031cc:	c7 44 24 08 05 57 00 	movl   $0xc0005705,0x8(%esp)
c00031d3:	c0 
c00031d4:	c7 44 24 04 5d 00 00 	movl   $0x5d,0x4(%esp)
c00031db:	00 
c00031dc:	c7 04 24 99 56 00 c0 	movl   $0xc0005699,(%esp)
c00031e3:	e8 3a f1 ff ff       	call   c0002322 <panic_spin>
c00031e8:	8b 45 08             	mov    0x8(%ebp),%eax
c00031eb:	89 45 f4             	mov    %eax,-0xc(%ebp)
c00031ee:	90                   	nop
c00031ef:	8b 45 f4             	mov    -0xc(%ebp),%eax
c00031f2:	0f b6 00             	movzbl (%eax),%eax
c00031f5:	84 c0                	test   %al,%al
c00031f7:	0f 95 c0             	setne  %al
c00031fa:	83 45 f4 01          	addl   $0x1,-0xc(%ebp)
c00031fe:	84 c0                	test   %al,%al
c0003200:	75 ed                	jne    c00031ef <strcat+0x3d>
c0003202:	83 6d f4 01          	subl   $0x1,-0xc(%ebp)
c0003206:	90                   	nop
c0003207:	8b 45 0c             	mov    0xc(%ebp),%eax
c000320a:	0f b6 10             	movzbl (%eax),%edx
c000320d:	8b 45 f4             	mov    -0xc(%ebp),%eax
c0003210:	88 10                	mov    %dl,(%eax)
c0003212:	8b 45 f4             	mov    -0xc(%ebp),%eax
c0003215:	0f b6 00             	movzbl (%eax),%eax
c0003218:	84 c0                	test   %al,%al
c000321a:	0f 95 c0             	setne  %al
c000321d:	83 45 f4 01          	addl   $0x1,-0xc(%ebp)
c0003221:	83 45 0c 01          	addl   $0x1,0xc(%ebp)
c0003225:	84 c0                	test   %al,%al
c0003227:	75 de                	jne    c0003207 <strcat+0x55>
c0003229:	8b 45 08             	mov    0x8(%ebp),%eax
c000322c:	c9                   	leave  
c000322d:	c3                   	ret    

c000322e <strchrs>:
c000322e:	55                   	push   %ebp
c000322f:	89 e5                	mov    %esp,%ebp
c0003231:	83 ec 38             	sub    $0x38,%esp
c0003234:	8b 45 0c             	mov    0xc(%ebp),%eax
c0003237:	88 45 e4             	mov    %al,-0x1c(%ebp)
c000323a:	83 7d 08 00          	cmpl   $0x0,0x8(%ebp)
c000323e:	75 24                	jne    c0003264 <strchrs+0x36>
c0003240:	c7 44 24 0c da 56 00 	movl   $0xc00056da,0xc(%esp)
c0003247:	c0 
c0003248:	c7 44 24 08 fd 56 00 	movl   $0xc00056fd,0x8(%esp)
c000324f:	c0 
c0003250:	c7 44 24 04 67 00 00 	movl   $0x67,0x4(%esp)
c0003257:	00 
c0003258:	c7 04 24 99 56 00 c0 	movl   $0xc0005699,(%esp)
c000325f:	e8 be f0 ff ff       	call   c0002322 <panic_spin>
c0003264:	c7 45 f4 00 00 00 00 	movl   $0x0,-0xc(%ebp)
c000326b:	8b 45 08             	mov    0x8(%ebp),%eax
c000326e:	89 45 f0             	mov    %eax,-0x10(%ebp)
c0003271:	eb 19                	jmp    c000328c <strchrs+0x5e>
c0003273:	8b 45 f0             	mov    -0x10(%ebp),%eax
c0003276:	0f b6 00             	movzbl (%eax),%eax
c0003279:	0f be d0             	movsbl %al,%edx
c000327c:	0f b6 45 e4          	movzbl -0x1c(%ebp),%eax
c0003280:	39 c2                	cmp    %eax,%edx
c0003282:	75 04                	jne    c0003288 <strchrs+0x5a>
c0003284:	83 45 f4 01          	addl   $0x1,-0xc(%ebp)
c0003288:	83 45 f0 01          	addl   $0x1,-0x10(%ebp)
c000328c:	8b 45 f0             	mov    -0x10(%ebp),%eax
c000328f:	0f b6 00             	movzbl (%eax),%eax
c0003292:	84 c0                	test   %al,%al
c0003294:	75 dd                	jne    c0003273 <strchrs+0x45>
c0003296:	8b 45 f4             	mov    -0xc(%ebp),%eax
c0003299:	c9                   	leave  
c000329a:	c3                   	ret    

c000329b <running_thread>:
c000329b:	55                   	push   %ebp
c000329c:	89 e5                	mov    %esp,%ebp
c000329e:	53                   	push   %ebx
c000329f:	83 ec 10             	sub    $0x10,%esp
c00032a2:	89 e3                	mov    %esp,%ebx
c00032a4:	89 5d f8             	mov    %ebx,-0x8(%ebp)
c00032a7:	8b 45 f8             	mov    -0x8(%ebp),%eax
c00032aa:	25 00 f0 ff ff       	and    $0xfffff000,%eax
c00032af:	83 c4 10             	add    $0x10,%esp
c00032b2:	5b                   	pop    %ebx
c00032b3:	5d                   	pop    %ebp
c00032b4:	c3                   	ret    

c00032b5 <kernel_thread>:
c00032b5:	55                   	push   %ebp
c00032b6:	89 e5                	mov    %esp,%ebp
c00032b8:	83 ec 18             	sub    $0x18,%esp
c00032bb:	e8 fd e6 ff ff       	call   c00019bd <intr_enable>
c00032c0:	8b 45 0c             	mov    0xc(%ebp),%eax
c00032c3:	89 04 24             	mov    %eax,(%esp)
c00032c6:	8b 45 08             	mov    0x8(%ebp),%eax
c00032c9:	ff d0                	call   *%eax
c00032cb:	c9                   	leave  
c00032cc:	c3                   	ret    

c00032cd <thread_create>:
c00032cd:	55                   	push   %ebp
c00032ce:	89 e5                	mov    %esp,%ebp
c00032d0:	83 ec 10             	sub    $0x10,%esp
c00032d3:	8b 45 08             	mov    0x8(%ebp),%eax
c00032d6:	8b 00                	mov    (%eax),%eax
c00032d8:	8d 90 d0 fe ff ff    	lea    -0x130(%eax),%edx
c00032de:	8b 45 08             	mov    0x8(%ebp),%eax
c00032e1:	89 10                	mov    %edx,(%eax)
c00032e3:	8b 45 08             	mov    0x8(%ebp),%eax
c00032e6:	8b 00                	mov    (%eax),%eax
c00032e8:	8d 50 80             	lea    -0x80(%eax),%edx
c00032eb:	8b 45 08             	mov    0x8(%ebp),%eax
c00032ee:	89 10                	mov    %edx,(%eax)
c00032f0:	8b 45 08             	mov    0x8(%ebp),%eax
c00032f3:	8b 00                	mov    (%eax),%eax
c00032f5:	89 45 fc             	mov    %eax,-0x4(%ebp)
c00032f8:	8b 45 fc             	mov    -0x4(%ebp),%eax
c00032fb:	c7 40 10 b5 32 00 c0 	movl   $0xc00032b5,0x10(%eax)
c0003302:	8b 45 fc             	mov    -0x4(%ebp),%eax
c0003305:	8b 55 0c             	mov    0xc(%ebp),%edx
c0003308:	89 50 18             	mov    %edx,0x18(%eax)
c000330b:	8b 45 fc             	mov    -0x4(%ebp),%eax
c000330e:	8b 55 10             	mov    0x10(%ebp),%edx
c0003311:	89 50 1c             	mov    %edx,0x1c(%eax)
c0003314:	8b 45 fc             	mov    -0x4(%ebp),%eax
c0003317:	c7 40 08 00 00 00 00 	movl   $0x0,0x8(%eax)
c000331e:	8b 45 fc             	mov    -0x4(%ebp),%eax
c0003321:	8b 50 08             	mov    0x8(%eax),%edx
c0003324:	8b 45 fc             	mov    -0x4(%ebp),%eax
c0003327:	89 50 0c             	mov    %edx,0xc(%eax)
c000332a:	8b 45 fc             	mov    -0x4(%ebp),%eax
c000332d:	8b 50 0c             	mov    0xc(%eax),%edx
c0003330:	8b 45 fc             	mov    -0x4(%ebp),%eax
c0003333:	89 50 04             	mov    %edx,0x4(%eax)
c0003336:	8b 45 fc             	mov    -0x4(%ebp),%eax
c0003339:	8b 50 04             	mov    0x4(%eax),%edx
c000333c:	8b 45 fc             	mov    -0x4(%ebp),%eax
c000333f:	89 10                	mov    %edx,(%eax)
c0003341:	c9                   	leave  
c0003342:	c3                   	ret    

c0003343 <init_thread>:
c0003343:	55                   	push   %ebp
c0003344:	89 e5                	mov    %esp,%ebp
c0003346:	83 ec 18             	sub    $0x18,%esp
c0003349:	c7 44 24 08 44 00 00 	movl   $0x44,0x8(%esp)
c0003350:	00 
c0003351:	c7 44 24 04 00 00 00 	movl   $0x0,0x4(%esp)
c0003358:	00 
c0003359:	8b 45 08             	mov    0x8(%ebp),%eax
c000335c:	89 04 24             	mov    %eax,(%esp)
c000335f:	e8 e3 fa ff ff       	call   c0002e47 <memset>
c0003364:	8b 45 08             	mov    0x8(%ebp),%eax
c0003367:	8d 50 08             	lea    0x8(%eax),%edx
c000336a:	8b 45 0c             	mov    0xc(%ebp),%eax
c000336d:	89 44 24 04          	mov    %eax,0x4(%esp)
c0003371:	89 14 24             	mov    %edx,(%esp)
c0003374:	e8 25 fc ff ff       	call   c0002f9e <strcpy>
c0003379:	a1 ec 85 00 c0       	mov    0xc00085ec,%eax
c000337e:	39 45 08             	cmp    %eax,0x8(%ebp)
c0003381:	75 0c                	jne    c000338f <init_thread+0x4c>
c0003383:	8b 45 08             	mov    0x8(%ebp),%eax
c0003386:	c7 40 04 00 00 00 00 	movl   $0x0,0x4(%eax)
c000338d:	eb 0a                	jmp    c0003399 <init_thread+0x56>
c000338f:	8b 45 08             	mov    0x8(%ebp),%eax
c0003392:	c7 40 04 01 00 00 00 	movl   $0x1,0x4(%eax)
c0003399:	8b 45 08             	mov    0x8(%ebp),%eax
c000339c:	05 00 10 00 00       	add    $0x1000,%eax
c00033a1:	89 c2                	mov    %eax,%edx
c00033a3:	8b 45 08             	mov    0x8(%ebp),%eax
c00033a6:	89 10                	mov    %edx,(%eax)
c00033a8:	8b 45 10             	mov    0x10(%ebp),%eax
c00033ab:	89 c2                	mov    %eax,%edx
c00033ad:	8b 45 08             	mov    0x8(%ebp),%eax
c00033b0:	88 50 18             	mov    %dl,0x18(%eax)
c00033b3:	8b 45 10             	mov    0x10(%ebp),%eax
c00033b6:	89 c2                	mov    %eax,%edx
c00033b8:	8b 45 08             	mov    0x8(%ebp),%eax
c00033bb:	88 50 19             	mov    %dl,0x19(%eax)
c00033be:	8b 45 08             	mov    0x8(%ebp),%eax
c00033c1:	c7 40 1c 00 00 00 00 	movl   $0x0,0x1c(%eax)
c00033c8:	8b 45 08             	mov    0x8(%ebp),%eax
c00033cb:	c7 40 30 00 00 00 00 	movl   $0x0,0x30(%eax)
c00033d2:	8b 45 08             	mov    0x8(%ebp),%eax
c00033d5:	c7 40 40 16 09 87 19 	movl   $0x19870916,0x40(%eax)
c00033dc:	c9                   	leave  
c00033dd:	c3                   	ret    

c00033de <thread_start>:
c00033de:	55                   	push   %ebp
c00033df:	89 e5                	mov    %esp,%ebp
c00033e1:	83 ec 28             	sub    $0x28,%esp
c00033e4:	c7 04 24 01 00 00 00 	movl   $0x1,(%esp)
c00033eb:	e8 95 f3 ff ff       	call   c0002785 <get_kernel_pages>
c00033f0:	89 45 f4             	mov    %eax,-0xc(%ebp)
c00033f3:	8b 45 0c             	mov    0xc(%ebp),%eax
c00033f6:	89 44 24 08          	mov    %eax,0x8(%esp)
c00033fa:	8b 45 08             	mov    0x8(%ebp),%eax
c00033fd:	89 44 24 04          	mov    %eax,0x4(%esp)
c0003401:	8b 45 f4             	mov    -0xc(%ebp),%eax
c0003404:	89 04 24             	mov    %eax,(%esp)
c0003407:	e8 37 ff ff ff       	call   c0003343 <init_thread>
c000340c:	8b 45 14             	mov    0x14(%ebp),%eax
c000340f:	89 44 24 08          	mov    %eax,0x8(%esp)
c0003413:	8b 45 10             	mov    0x10(%ebp),%eax
c0003416:	89 44 24 04          	mov    %eax,0x4(%esp)
c000341a:	8b 45 f4             	mov    -0xc(%ebp),%eax
c000341d:	89 04 24             	mov    %eax,(%esp)
c0003420:	e8 a8 fe ff ff       	call   c00032cd <thread_create>
c0003425:	8b 45 f4             	mov    -0xc(%ebp),%eax
c0003428:	83 c0 20             	add    $0x20,%eax
c000342b:	89 44 24 04          	mov    %eax,0x4(%esp)
c000342f:	c7 04 24 cc 85 00 c0 	movl   $0xc00085cc,(%esp)
c0003436:	e8 fd 04 00 00       	call   c0003938 <elem_find>
c000343b:	85 c0                	test   %eax,%eax
c000343d:	74 24                	je     c0003463 <thread_start+0x85>
c000343f:	c7 44 24 0c 48 57 00 	movl   $0xc0005748,0xc(%esp)
c0003446:	c0 
c0003447:	c7 44 24 08 f9 59 00 	movl   $0xc00059f9,0x8(%esp)
c000344e:	c0 
c000344f:	c7 44 24 04 4f 00 00 	movl   $0x4f,0x4(%esp)
c0003456:	00 
c0003457:	c7 04 24 7d 57 00 c0 	movl   $0xc000577d,(%esp)
c000345e:	e8 bf ee ff ff       	call   c0002322 <panic_spin>
c0003463:	8b 45 f4             	mov    -0xc(%ebp),%eax
c0003466:	83 c0 20             	add    $0x20,%eax
c0003469:	89 44 24 04          	mov    %eax,0x4(%esp)
c000346d:	c7 04 24 cc 85 00 c0 	movl   $0xc00085cc,(%esp)
c0003474:	e8 4d 04 00 00       	call   c00038c6 <list_append>
c0003479:	8b 45 f4             	mov    -0xc(%ebp),%eax
c000347c:	83 c0 28             	add    $0x28,%eax
c000347f:	89 44 24 04          	mov    %eax,0x4(%esp)
c0003483:	c7 04 24 dc 85 00 c0 	movl   $0xc00085dc,(%esp)
c000348a:	e8 a9 04 00 00       	call   c0003938 <elem_find>
c000348f:	85 c0                	test   %eax,%eax
c0003491:	74 24                	je     c00034b7 <thread_start+0xd9>
c0003493:	c7 44 24 0c 90 57 00 	movl   $0xc0005790,0xc(%esp)
c000349a:	c0 
c000349b:	c7 44 24 08 f9 59 00 	movl   $0xc00059f9,0x8(%esp)
c00034a2:	c0 
c00034a3:	c7 44 24 04 54 00 00 	movl   $0x54,0x4(%esp)
c00034aa:	00 
c00034ab:	c7 04 24 7d 57 00 c0 	movl   $0xc000577d,(%esp)
c00034b2:	e8 6b ee ff ff       	call   c0002322 <panic_spin>
c00034b7:	8b 45 f4             	mov    -0xc(%ebp),%eax
c00034ba:	83 c0 28             	add    $0x28,%eax
c00034bd:	89 44 24 04          	mov    %eax,0x4(%esp)
c00034c1:	c7 04 24 dc 85 00 c0 	movl   $0xc00085dc,(%esp)
c00034c8:	e8 f9 03 00 00       	call   c00038c6 <list_append>
c00034cd:	8b 45 f4             	mov    -0xc(%ebp),%eax
c00034d0:	c9                   	leave  
c00034d1:	c3                   	ret    

c00034d2 <make_main_thread>:
c00034d2:	55                   	push   %ebp
c00034d3:	89 e5                	mov    %esp,%ebp
c00034d5:	83 ec 18             	sub    $0x18,%esp
c00034d8:	e8 be fd ff ff       	call   c000329b <running_thread>
c00034dd:	a3 ec 85 00 c0       	mov    %eax,0xc00085ec
c00034e2:	a1 ec 85 00 c0       	mov    0xc00085ec,%eax
c00034e7:	c7 44 24 08 1f 00 00 	movl   $0x1f,0x8(%esp)
c00034ee:	00 
c00034ef:	c7 44 24 04 c4 57 00 	movl   $0xc00057c4,0x4(%esp)
c00034f6:	c0 
c00034f7:	89 04 24             	mov    %eax,(%esp)
c00034fa:	e8 44 fe ff ff       	call   c0003343 <init_thread>
c00034ff:	a1 ec 85 00 c0       	mov    0xc00085ec,%eax
c0003504:	83 c0 28             	add    $0x28,%eax
c0003507:	89 44 24 04          	mov    %eax,0x4(%esp)
c000350b:	c7 04 24 dc 85 00 c0 	movl   $0xc00085dc,(%esp)
c0003512:	e8 21 04 00 00       	call   c0003938 <elem_find>
c0003517:	85 c0                	test   %eax,%eax
c0003519:	74 24                	je     c000353f <make_main_thread+0x6d>
c000351b:	c7 44 24 0c cc 57 00 	movl   $0xc00057cc,0xc(%esp)
c0003522:	c0 
c0003523:	c7 44 24 08 e8 59 00 	movl   $0xc00059e8,0x8(%esp)
c000352a:	c0 
c000352b:	c7 44 24 04 64 00 00 	movl   $0x64,0x4(%esp)
c0003532:	00 
c0003533:	c7 04 24 7d 57 00 c0 	movl   $0xc000577d,(%esp)
c000353a:	e8 e3 ed ff ff       	call   c0002322 <panic_spin>
c000353f:	a1 ec 85 00 c0       	mov    0xc00085ec,%eax
c0003544:	83 c0 28             	add    $0x28,%eax
c0003547:	89 44 24 04          	mov    %eax,0x4(%esp)
c000354b:	c7 04 24 dc 85 00 c0 	movl   $0xc00085dc,(%esp)
c0003552:	e8 6f 03 00 00       	call   c00038c6 <list_append>
c0003557:	c9                   	leave  
c0003558:	c3                   	ret    

c0003559 <schedule>:
c0003559:	55                   	push   %ebp
c000355a:	89 e5                	mov    %esp,%ebp
c000355c:	83 ec 28             	sub    $0x28,%esp
c000355f:	e8 c9 e4 ff ff       	call   c0001a2d <intr_get_status>
c0003564:	85 c0                	test   %eax,%eax
c0003566:	74 24                	je     c000358c <schedule+0x33>
c0003568:	c7 44 24 0c 05 58 00 	movl   $0xc0005805,0xc(%esp)
c000356f:	c0 
c0003570:	c7 44 24 08 df 59 00 	movl   $0xc00059df,0x8(%esp)
c0003577:	c0 
c0003578:	c7 44 24 04 6b 00 00 	movl   $0x6b,0x4(%esp)
c000357f:	00 
c0003580:	c7 04 24 7d 57 00 c0 	movl   $0xc000577d,(%esp)
c0003587:	e8 96 ed ff ff       	call   c0002322 <panic_spin>
c000358c:	e8 0a fd ff ff       	call   c000329b <running_thread>
c0003591:	89 45 f4             	mov    %eax,-0xc(%ebp)
c0003594:	8b 45 f4             	mov    -0xc(%ebp),%eax
c0003597:	8b 40 04             	mov    0x4(%eax),%eax
c000359a:	85 c0                	test   %eax,%eax
c000359c:	75 6b                	jne    c0003609 <schedule+0xb0>
c000359e:	8b 45 f4             	mov    -0xc(%ebp),%eax
c00035a1:	83 c0 20             	add    $0x20,%eax
c00035a4:	89 44 24 04          	mov    %eax,0x4(%esp)
c00035a8:	c7 04 24 cc 85 00 c0 	movl   $0xc00085cc,(%esp)
c00035af:	e8 84 03 00 00       	call   c0003938 <elem_find>
c00035b4:	85 c0                	test   %eax,%eax
c00035b6:	74 24                	je     c00035dc <schedule+0x83>
c00035b8:	c7 44 24 0c 24 58 00 	movl   $0xc0005824,0xc(%esp)
c00035bf:	c0 
c00035c0:	c7 44 24 08 df 59 00 	movl   $0xc00059df,0x8(%esp)
c00035c7:	c0 
c00035c8:	c7 44 24 04 6f 00 00 	movl   $0x6f,0x4(%esp)
c00035cf:	00 
c00035d0:	c7 04 24 7d 57 00 c0 	movl   $0xc000577d,(%esp)
c00035d7:	e8 46 ed ff ff       	call   c0002322 <panic_spin>
c00035dc:	8b 45 f4             	mov    -0xc(%ebp),%eax
c00035df:	83 c0 20             	add    $0x20,%eax
c00035e2:	89 44 24 04          	mov    %eax,0x4(%esp)
c00035e6:	c7 04 24 cc 85 00 c0 	movl   $0xc00085cc,(%esp)
c00035ed:	e8 d4 02 00 00       	call   c00038c6 <list_append>
c00035f2:	8b 45 f4             	mov    -0xc(%ebp),%eax
c00035f5:	0f b6 50 18          	movzbl 0x18(%eax),%edx
c00035f9:	8b 45 f4             	mov    -0xc(%ebp),%eax
c00035fc:	88 50 19             	mov    %dl,0x19(%eax)
c00035ff:	8b 45 f4             	mov    -0xc(%ebp),%eax
c0003602:	c7 40 04 01 00 00 00 	movl   $0x1,0x4(%eax)
c0003609:	c7 04 24 cc 85 00 c0 	movl   $0xc00085cc,(%esp)
c0003610:	e8 f1 03 00 00       	call   c0003a06 <list_empty>
c0003615:	85 c0                	test   %eax,%eax
c0003617:	74 24                	je     c000363d <schedule+0xe4>
c0003619:	c7 44 24 0c 58 58 00 	movl   $0xc0005858,0xc(%esp)
c0003620:	c0 
c0003621:	c7 44 24 08 df 59 00 	movl   $0xc00059df,0x8(%esp)
c0003628:	c0 
c0003629:	c7 44 24 04 78 00 00 	movl   $0x78,0x4(%esp)
c0003630:	00 
c0003631:	c7 04 24 7d 57 00 c0 	movl   $0xc000577d,(%esp)
c0003638:	e8 e5 ec ff ff       	call   c0002322 <panic_spin>
c000363d:	c7 05 00 83 00 c0 00 	movl   $0x0,0xc0008300
c0003644:	00 00 00 
c0003647:	c7 04 24 cc 85 00 c0 	movl   $0xc00085cc,(%esp)
c000364e:	e8 c6 02 00 00       	call   c0003919 <list_pop>
c0003653:	a3 00 83 00 c0       	mov    %eax,0xc0008300
c0003658:	a1 00 83 00 c0       	mov    0xc0008300,%eax
c000365d:	83 e8 20             	sub    $0x20,%eax
c0003660:	89 45 f0             	mov    %eax,-0x10(%ebp)
c0003663:	8b 45 f0             	mov    -0x10(%ebp),%eax
c0003666:	c7 40 04 00 00 00 00 	movl   $0x0,0x4(%eax)
c000366d:	8b 45 f0             	mov    -0x10(%ebp),%eax
c0003670:	89 04 24             	mov    %eax,(%esp)
c0003673:	e8 64 10 00 00       	call   c00046dc <process_activate>
c0003678:	8b 45 f0             	mov    -0x10(%ebp),%eax
c000367b:	89 44 24 04          	mov    %eax,0x4(%esp)
c000367f:	8b 45 f4             	mov    -0xc(%ebp),%eax
c0003682:	89 04 24             	mov    %eax,(%esp)
c0003685:	e8 96 03 00 00       	call   c0003a20 <switch_to>
c000368a:	c9                   	leave  
c000368b:	c3                   	ret    

c000368c <thread_block>:
c000368c:	55                   	push   %ebp
c000368d:	89 e5                	mov    %esp,%ebp
c000368f:	83 ec 28             	sub    $0x28,%esp
c0003692:	83 7d 08 02          	cmpl   $0x2,0x8(%ebp)
c0003696:	74 30                	je     c00036c8 <thread_block+0x3c>
c0003698:	83 7d 08 03          	cmpl   $0x3,0x8(%ebp)
c000369c:	74 2a                	je     c00036c8 <thread_block+0x3c>
c000369e:	83 7d 08 04          	cmpl   $0x4,0x8(%ebp)
c00036a2:	74 24                	je     c00036c8 <thread_block+0x3c>
c00036a4:	c7 44 24 0c 78 58 00 	movl   $0xc0005878,0xc(%esp)
c00036ab:	c0 
c00036ac:	c7 44 24 08 d2 59 00 	movl   $0xc00059d2,0x8(%esp)
c00036b3:	c0 
c00036b4:	c7 44 24 04 88 00 00 	movl   $0x88,0x4(%esp)
c00036bb:	00 
c00036bc:	c7 04 24 7d 57 00 c0 	movl   $0xc000577d,(%esp)
c00036c3:	e8 5a ec ff ff       	call   c0002322 <panic_spin>
c00036c8:	e8 19 e3 ff ff       	call   c00019e6 <intr_disable>
c00036cd:	89 45 f4             	mov    %eax,-0xc(%ebp)
c00036d0:	e8 c6 fb ff ff       	call   c000329b <running_thread>
c00036d5:	89 45 f0             	mov    %eax,-0x10(%ebp)
c00036d8:	8b 45 f0             	mov    -0x10(%ebp),%eax
c00036db:	8b 55 08             	mov    0x8(%ebp),%edx
c00036de:	89 50 04             	mov    %edx,0x4(%eax)
c00036e1:	e8 73 fe ff ff       	call   c0003559 <schedule>
c00036e6:	8b 45 f4             	mov    -0xc(%ebp),%eax
c00036e9:	89 04 24             	mov    %eax,(%esp)
c00036ec:	e8 1e e3 ff ff       	call   c0001a0f <intr_set_status>
c00036f1:	c9                   	leave  
c00036f2:	c3                   	ret    

c00036f3 <thread_unblock>:
c00036f3:	55                   	push   %ebp
c00036f4:	89 e5                	mov    %esp,%ebp
c00036f6:	83 ec 28             	sub    $0x28,%esp
c00036f9:	e8 e8 e2 ff ff       	call   c00019e6 <intr_disable>
c00036fe:	89 45 f4             	mov    %eax,-0xc(%ebp)
c0003701:	8b 45 08             	mov    0x8(%ebp),%eax
c0003704:	8b 40 04             	mov    0x4(%eax),%eax
c0003707:	83 f8 02             	cmp    $0x2,%eax
c000370a:	74 3a                	je     c0003746 <thread_unblock+0x53>
c000370c:	8b 45 08             	mov    0x8(%ebp),%eax
c000370f:	8b 40 04             	mov    0x4(%eax),%eax
c0003712:	83 f8 03             	cmp    $0x3,%eax
c0003715:	74 2f                	je     c0003746 <thread_unblock+0x53>
c0003717:	8b 45 08             	mov    0x8(%ebp),%eax
c000371a:	8b 40 04             	mov    0x4(%eax),%eax
c000371d:	83 f8 04             	cmp    $0x4,%eax
c0003720:	74 24                	je     c0003746 <thread_unblock+0x53>
c0003722:	c7 44 24 0c c8 58 00 	movl   $0xc00058c8,0xc(%esp)
c0003729:	c0 
c000372a:	c7 44 24 08 c3 59 00 	movl   $0xc00059c3,0x8(%esp)
c0003731:	c0 
c0003732:	c7 44 24 04 94 00 00 	movl   $0x94,0x4(%esp)
c0003739:	00 
c000373a:	c7 04 24 7d 57 00 c0 	movl   $0xc000577d,(%esp)
c0003741:	e8 dc eb ff ff       	call   c0002322 <panic_spin>
c0003746:	8b 45 08             	mov    0x8(%ebp),%eax
c0003749:	8b 40 04             	mov    0x4(%eax),%eax
c000374c:	83 f8 01             	cmp    $0x1,%eax
c000374f:	0f 84 9c 00 00 00    	je     c00037f1 <thread_unblock+0xfe>
c0003755:	8b 45 08             	mov    0x8(%ebp),%eax
c0003758:	83 c0 20             	add    $0x20,%eax
c000375b:	89 44 24 04          	mov    %eax,0x4(%esp)
c000375f:	c7 04 24 cc 85 00 c0 	movl   $0xc00085cc,(%esp)
c0003766:	e8 cd 01 00 00       	call   c0003938 <elem_find>
c000376b:	85 c0                	test   %eax,%eax
c000376d:	74 24                	je     c0003793 <thread_unblock+0xa0>
c000376f:	c7 44 24 0c 38 59 00 	movl   $0xc0005938,0xc(%esp)
c0003776:	c0 
c0003777:	c7 44 24 08 c3 59 00 	movl   $0xc00059c3,0x8(%esp)
c000377e:	c0 
c000377f:	c7 44 24 04 96 00 00 	movl   $0x96,0x4(%esp)
c0003786:	00 
c0003787:	c7 04 24 7d 57 00 c0 	movl   $0xc000577d,(%esp)
c000378e:	e8 8f eb ff ff       	call   c0002322 <panic_spin>
c0003793:	8b 45 08             	mov    0x8(%ebp),%eax
c0003796:	83 c0 20             	add    $0x20,%eax
c0003799:	89 44 24 04          	mov    %eax,0x4(%esp)
c000379d:	c7 04 24 cc 85 00 c0 	movl   $0xc00085cc,(%esp)
c00037a4:	e8 8f 01 00 00       	call   c0003938 <elem_find>
c00037a9:	85 c0                	test   %eax,%eax
c00037ab:	74 24                	je     c00037d1 <thread_unblock+0xde>
c00037ad:	c7 44 24 0c 70 59 00 	movl   $0xc0005970,0xc(%esp)
c00037b4:	c0 
c00037b5:	c7 44 24 08 c3 59 00 	movl   $0xc00059c3,0x8(%esp)
c00037bc:	c0 
c00037bd:	c7 44 24 04 98 00 00 	movl   $0x98,0x4(%esp)
c00037c4:	00 
c00037c5:	c7 04 24 7d 57 00 c0 	movl   $0xc000577d,(%esp)
c00037cc:	e8 51 eb ff ff       	call   c0002322 <panic_spin>
c00037d1:	8b 45 08             	mov    0x8(%ebp),%eax
c00037d4:	83 c0 20             	add    $0x20,%eax
c00037d7:	89 44 24 04          	mov    %eax,0x4(%esp)
c00037db:	c7 04 24 cc 85 00 c0 	movl   $0xc00085cc,(%esp)
c00037e2:	e8 c2 00 00 00       	call   c00038a9 <list_push>
c00037e7:	8b 45 08             	mov    0x8(%ebp),%eax
c00037ea:	c7 40 04 01 00 00 00 	movl   $0x1,0x4(%eax)
c00037f1:	8b 45 f4             	mov    -0xc(%ebp),%eax
c00037f4:	89 04 24             	mov    %eax,(%esp)
c00037f7:	e8 13 e2 ff ff       	call   c0001a0f <intr_set_status>
c00037fc:	c9                   	leave  
c00037fd:	c3                   	ret    

c00037fe <thread_init>:
c00037fe:	55                   	push   %ebp
c00037ff:	89 e5                	mov    %esp,%ebp
c0003801:	83 ec 18             	sub    $0x18,%esp
c0003804:	c7 04 24 9e 59 00 c0 	movl   $0xc000599e,(%esp)
c000380b:	e8 a0 e9 ff ff       	call   c00021b0 <put_str>
c0003810:	c7 04 24 cc 85 00 c0 	movl   $0xc00085cc,(%esp)
c0003817:	e8 1f 00 00 00       	call   c000383b <list_init>
c000381c:	c7 04 24 dc 85 00 c0 	movl   $0xc00085dc,(%esp)
c0003823:	e8 13 00 00 00       	call   c000383b <list_init>
c0003828:	e8 a5 fc ff ff       	call   c00034d2 <make_main_thread>
c000382d:	c7 04 24 b1 59 00 c0 	movl   $0xc00059b1,(%esp)
c0003834:	e8 77 e9 ff ff       	call   c00021b0 <put_str>
c0003839:	c9                   	leave  
c000383a:	c3                   	ret    

c000383b <list_init>:
c000383b:	55                   	push   %ebp
c000383c:	89 e5                	mov    %esp,%ebp
c000383e:	8b 45 08             	mov    0x8(%ebp),%eax
c0003841:	c7 00 00 00 00 00    	movl   $0x0,(%eax)
c0003847:	8b 45 08             	mov    0x8(%ebp),%eax
c000384a:	8d 50 08             	lea    0x8(%eax),%edx
c000384d:	8b 45 08             	mov    0x8(%ebp),%eax
c0003850:	89 50 04             	mov    %edx,0x4(%eax)
c0003853:	8b 55 08             	mov    0x8(%ebp),%edx
c0003856:	8b 45 08             	mov    0x8(%ebp),%eax
c0003859:	89 50 08             	mov    %edx,0x8(%eax)
c000385c:	8b 45 08             	mov    0x8(%ebp),%eax
c000385f:	c7 40 0c 00 00 00 00 	movl   $0x0,0xc(%eax)
c0003866:	5d                   	pop    %ebp
c0003867:	c3                   	ret    

c0003868 <list_insert_before>:
c0003868:	55                   	push   %ebp
c0003869:	89 e5                	mov    %esp,%ebp
c000386b:	83 ec 28             	sub    $0x28,%esp
c000386e:	e8 73 e1 ff ff       	call   c00019e6 <intr_disable>
c0003873:	89 45 f4             	mov    %eax,-0xc(%ebp)
c0003876:	8b 45 08             	mov    0x8(%ebp),%eax
c0003879:	8b 00                	mov    (%eax),%eax
c000387b:	8b 55 0c             	mov    0xc(%ebp),%edx
c000387e:	89 50 04             	mov    %edx,0x4(%eax)
c0003881:	8b 45 08             	mov    0x8(%ebp),%eax
c0003884:	8b 10                	mov    (%eax),%edx
c0003886:	8b 45 0c             	mov    0xc(%ebp),%eax
c0003889:	89 10                	mov    %edx,(%eax)
c000388b:	8b 45 0c             	mov    0xc(%ebp),%eax
c000388e:	8b 55 08             	mov    0x8(%ebp),%edx
c0003891:	89 50 04             	mov    %edx,0x4(%eax)
c0003894:	8b 45 08             	mov    0x8(%ebp),%eax
c0003897:	8b 55 0c             	mov    0xc(%ebp),%edx
c000389a:	89 10                	mov    %edx,(%eax)
c000389c:	8b 45 f4             	mov    -0xc(%ebp),%eax
c000389f:	89 04 24             	mov    %eax,(%esp)
c00038a2:	e8 68 e1 ff ff       	call   c0001a0f <intr_set_status>
c00038a7:	c9                   	leave  
c00038a8:	c3                   	ret    

c00038a9 <list_push>:
c00038a9:	55                   	push   %ebp
c00038aa:	89 e5                	mov    %esp,%ebp
c00038ac:	83 ec 18             	sub    $0x18,%esp
c00038af:	8b 45 08             	mov    0x8(%ebp),%eax
c00038b2:	8b 40 04             	mov    0x4(%eax),%eax
c00038b5:	8b 55 0c             	mov    0xc(%ebp),%edx
c00038b8:	89 54 24 04          	mov    %edx,0x4(%esp)
c00038bc:	89 04 24             	mov    %eax,(%esp)
c00038bf:	e8 a4 ff ff ff       	call   c0003868 <list_insert_before>
c00038c4:	c9                   	leave  
c00038c5:	c3                   	ret    

c00038c6 <list_append>:
c00038c6:	55                   	push   %ebp
c00038c7:	89 e5                	mov    %esp,%ebp
c00038c9:	83 ec 18             	sub    $0x18,%esp
c00038cc:	8b 45 08             	mov    0x8(%ebp),%eax
c00038cf:	8d 50 08             	lea    0x8(%eax),%edx
c00038d2:	8b 45 0c             	mov    0xc(%ebp),%eax
c00038d5:	89 44 24 04          	mov    %eax,0x4(%esp)
c00038d9:	89 14 24             	mov    %edx,(%esp)
c00038dc:	e8 87 ff ff ff       	call   c0003868 <list_insert_before>
c00038e1:	c9                   	leave  
c00038e2:	c3                   	ret    

c00038e3 <list_remove>:
c00038e3:	55                   	push   %ebp
c00038e4:	89 e5                	mov    %esp,%ebp
c00038e6:	83 ec 28             	sub    $0x28,%esp
c00038e9:	e8 f8 e0 ff ff       	call   c00019e6 <intr_disable>
c00038ee:	89 45 f4             	mov    %eax,-0xc(%ebp)
c00038f1:	8b 45 08             	mov    0x8(%ebp),%eax
c00038f4:	8b 00                	mov    (%eax),%eax
c00038f6:	8b 55 08             	mov    0x8(%ebp),%edx
c00038f9:	8b 52 04             	mov    0x4(%edx),%edx
c00038fc:	89 50 04             	mov    %edx,0x4(%eax)
c00038ff:	8b 45 08             	mov    0x8(%ebp),%eax
c0003902:	8b 40 04             	mov    0x4(%eax),%eax
c0003905:	8b 55 08             	mov    0x8(%ebp),%edx
c0003908:	8b 12                	mov    (%edx),%edx
c000390a:	89 10                	mov    %edx,(%eax)
c000390c:	8b 45 f4             	mov    -0xc(%ebp),%eax
c000390f:	89 04 24             	mov    %eax,(%esp)
c0003912:	e8 f8 e0 ff ff       	call   c0001a0f <intr_set_status>
c0003917:	c9                   	leave  
c0003918:	c3                   	ret    

c0003919 <list_pop>:
c0003919:	55                   	push   %ebp
c000391a:	89 e5                	mov    %esp,%ebp
c000391c:	83 ec 28             	sub    $0x28,%esp
c000391f:	8b 45 08             	mov    0x8(%ebp),%eax
c0003922:	8b 40 04             	mov    0x4(%eax),%eax
c0003925:	89 45 f4             	mov    %eax,-0xc(%ebp)
c0003928:	8b 45 f4             	mov    -0xc(%ebp),%eax
c000392b:	89 04 24             	mov    %eax,(%esp)
c000392e:	e8 b0 ff ff ff       	call   c00038e3 <list_remove>
c0003933:	8b 45 f4             	mov    -0xc(%ebp),%eax
c0003936:	c9                   	leave  
c0003937:	c3                   	ret    

c0003938 <elem_find>:
c0003938:	55                   	push   %ebp
c0003939:	89 e5                	mov    %esp,%ebp
c000393b:	83 ec 10             	sub    $0x10,%esp
c000393e:	8b 45 08             	mov    0x8(%ebp),%eax
c0003941:	8b 40 04             	mov    0x4(%eax),%eax
c0003944:	89 45 fc             	mov    %eax,-0x4(%ebp)
c0003947:	eb 18                	jmp    c0003961 <elem_find+0x29>
c0003949:	8b 45 fc             	mov    -0x4(%ebp),%eax
c000394c:	3b 45 0c             	cmp    0xc(%ebp),%eax
c000394f:	75 07                	jne    c0003958 <elem_find+0x20>
c0003951:	b8 01 00 00 00       	mov    $0x1,%eax
c0003956:	eb 19                	jmp    c0003971 <elem_find+0x39>
c0003958:	8b 45 fc             	mov    -0x4(%ebp),%eax
c000395b:	8b 40 04             	mov    0x4(%eax),%eax
c000395e:	89 45 fc             	mov    %eax,-0x4(%ebp)
c0003961:	8b 45 08             	mov    0x8(%ebp),%eax
c0003964:	83 c0 08             	add    $0x8,%eax
c0003967:	3b 45 fc             	cmp    -0x4(%ebp),%eax
c000396a:	75 dd                	jne    c0003949 <elem_find+0x11>
c000396c:	b8 00 00 00 00       	mov    $0x0,%eax
c0003971:	c9                   	leave  
c0003972:	c3                   	ret    

c0003973 <list_traversal>:
c0003973:	55                   	push   %ebp
c0003974:	89 e5                	mov    %esp,%ebp
c0003976:	83 ec 28             	sub    $0x28,%esp
c0003979:	8b 45 08             	mov    0x8(%ebp),%eax
c000397c:	8b 40 04             	mov    0x4(%eax),%eax
c000397f:	89 45 f4             	mov    %eax,-0xc(%ebp)
c0003982:	8b 45 08             	mov    0x8(%ebp),%eax
c0003985:	89 04 24             	mov    %eax,(%esp)
c0003988:	e8 79 00 00 00       	call   c0003a06 <list_empty>
c000398d:	85 c0                	test   %eax,%eax
c000398f:	74 2d                	je     c00039be <list_traversal+0x4b>
c0003991:	b8 00 00 00 00       	mov    $0x0,%eax
c0003996:	eb 37                	jmp    c00039cf <list_traversal+0x5c>
c0003998:	8b 45 10             	mov    0x10(%ebp),%eax
c000399b:	89 44 24 04          	mov    %eax,0x4(%esp)
c000399f:	8b 45 f4             	mov    -0xc(%ebp),%eax
c00039a2:	89 04 24             	mov    %eax,(%esp)
c00039a5:	8b 45 0c             	mov    0xc(%ebp),%eax
c00039a8:	ff d0                	call   *%eax
c00039aa:	85 c0                	test   %eax,%eax
c00039ac:	74 05                	je     c00039b3 <list_traversal+0x40>
c00039ae:	8b 45 f4             	mov    -0xc(%ebp),%eax
c00039b1:	eb 1c                	jmp    c00039cf <list_traversal+0x5c>
c00039b3:	8b 45 f4             	mov    -0xc(%ebp),%eax
c00039b6:	8b 40 04             	mov    0x4(%eax),%eax
c00039b9:	89 45 f4             	mov    %eax,-0xc(%ebp)
c00039bc:	eb 01                	jmp    c00039bf <list_traversal+0x4c>
c00039be:	90                   	nop
c00039bf:	8b 45 08             	mov    0x8(%ebp),%eax
c00039c2:	83 c0 08             	add    $0x8,%eax
c00039c5:	3b 45 f4             	cmp    -0xc(%ebp),%eax
c00039c8:	75 ce                	jne    c0003998 <list_traversal+0x25>
c00039ca:	b8 00 00 00 00       	mov    $0x0,%eax
c00039cf:	c9                   	leave  
c00039d0:	c3                   	ret    

c00039d1 <list_len>:
c00039d1:	55                   	push   %ebp
c00039d2:	89 e5                	mov    %esp,%ebp
c00039d4:	83 ec 10             	sub    $0x10,%esp
c00039d7:	8b 45 08             	mov    0x8(%ebp),%eax
c00039da:	8b 40 04             	mov    0x4(%eax),%eax
c00039dd:	89 45 fc             	mov    %eax,-0x4(%ebp)
c00039e0:	c7 45 f8 00 00 00 00 	movl   $0x0,-0x8(%ebp)
c00039e7:	eb 0d                	jmp    c00039f6 <list_len+0x25>
c00039e9:	83 45 f8 01          	addl   $0x1,-0x8(%ebp)
c00039ed:	8b 45 fc             	mov    -0x4(%ebp),%eax
c00039f0:	8b 40 04             	mov    0x4(%eax),%eax
c00039f3:	89 45 fc             	mov    %eax,-0x4(%ebp)
c00039f6:	8b 45 08             	mov    0x8(%ebp),%eax
c00039f9:	83 c0 08             	add    $0x8,%eax
c00039fc:	3b 45 fc             	cmp    -0x4(%ebp),%eax
c00039ff:	75 e8                	jne    c00039e9 <list_len+0x18>
c0003a01:	8b 45 f8             	mov    -0x8(%ebp),%eax
c0003a04:	c9                   	leave  
c0003a05:	c3                   	ret    

c0003a06 <list_empty>:
c0003a06:	55                   	push   %ebp
c0003a07:	89 e5                	mov    %esp,%ebp
c0003a09:	8b 45 08             	mov    0x8(%ebp),%eax
c0003a0c:	8b 40 04             	mov    0x4(%eax),%eax
c0003a0f:	8b 55 08             	mov    0x8(%ebp),%edx
c0003a12:	83 c2 08             	add    $0x8,%edx
c0003a15:	39 d0                	cmp    %edx,%eax
c0003a17:	0f 94 c0             	sete   %al
c0003a1a:	0f b6 c0             	movzbl %al,%eax
c0003a1d:	5d                   	pop    %ebp
c0003a1e:	c3                   	ret    
c0003a1f:	90                   	nop

c0003a20 <switch_to>:
c0003a20:	56                   	push   %esi
c0003a21:	57                   	push   %edi
c0003a22:	53                   	push   %ebx
c0003a23:	55                   	push   %ebp
c0003a24:	8b 44 24 14          	mov    0x14(%esp),%eax
c0003a28:	89 20                	mov    %esp,(%eax)
c0003a2a:	8b 44 24 18          	mov    0x18(%esp),%eax
c0003a2e:	8b 20                	mov    (%eax),%esp
c0003a30:	5d                   	pop    %ebp
c0003a31:	5b                   	pop    %ebx
c0003a32:	5f                   	pop    %edi
c0003a33:	5e                   	pop    %esi
c0003a34:	c3                   	ret    

c0003a35 <console_init>:
c0003a35:	55                   	push   %ebp
c0003a36:	89 e5                	mov    %esp,%ebp
c0003a38:	83 ec 18             	sub    $0x18,%esp
c0003a3b:	c7 04 24 04 83 00 c0 	movl   $0xc0008304,(%esp)
c0003a42:	e8 ad 00 00 00       	call   c0003af4 <lock_init>
c0003a47:	c9                   	leave  
c0003a48:	c3                   	ret    

c0003a49 <console_acquire>:
c0003a49:	55                   	push   %ebp
c0003a4a:	89 e5                	mov    %esp,%ebp
c0003a4c:	83 ec 18             	sub    $0x18,%esp
c0003a4f:	c7 04 24 04 83 00 c0 	movl   $0xc0008304,(%esp)
c0003a56:	e8 94 02 00 00       	call   c0003cef <lock_acquire>
c0003a5b:	c9                   	leave  
c0003a5c:	c3                   	ret    

c0003a5d <console_release>:
c0003a5d:	55                   	push   %ebp
c0003a5e:	89 e5                	mov    %esp,%ebp
c0003a60:	83 ec 18             	sub    $0x18,%esp
c0003a63:	c7 04 24 04 83 00 c0 	movl   $0xc0008304,(%esp)
c0003a6a:	e8 fc 02 00 00       	call   c0003d6b <lock_release>
c0003a6f:	c9                   	leave  
c0003a70:	c3                   	ret    

c0003a71 <console_put_str>:
c0003a71:	55                   	push   %ebp
c0003a72:	89 e5                	mov    %esp,%ebp
c0003a74:	83 ec 18             	sub    $0x18,%esp
c0003a77:	e8 cd ff ff ff       	call   c0003a49 <console_acquire>
c0003a7c:	8b 45 08             	mov    0x8(%ebp),%eax
c0003a7f:	89 04 24             	mov    %eax,(%esp)
c0003a82:	e8 29 e7 ff ff       	call   c00021b0 <put_str>
c0003a87:	e8 d1 ff ff ff       	call   c0003a5d <console_release>
c0003a8c:	c9                   	leave  
c0003a8d:	c3                   	ret    

c0003a8e <console_put_char>:
c0003a8e:	55                   	push   %ebp
c0003a8f:	89 e5                	mov    %esp,%ebp
c0003a91:	83 ec 28             	sub    $0x28,%esp
c0003a94:	8b 45 08             	mov    0x8(%ebp),%eax
c0003a97:	88 45 f4             	mov    %al,-0xc(%ebp)
c0003a9a:	e8 aa ff ff ff       	call   c0003a49 <console_acquire>
c0003a9f:	0f b6 45 f4          	movzbl -0xc(%ebp),%eax
c0003aa3:	89 04 24             	mov    %eax,(%esp)
c0003aa6:	e8 23 e7 ff ff       	call   c00021ce <put_char>
c0003aab:	e8 ad ff ff ff       	call   c0003a5d <console_release>
c0003ab0:	c9                   	leave  
c0003ab1:	c3                   	ret    

c0003ab2 <console_put_int>:
c0003ab2:	55                   	push   %ebp
c0003ab3:	89 e5                	mov    %esp,%ebp
c0003ab5:	83 ec 18             	sub    $0x18,%esp
c0003ab8:	e8 8c ff ff ff       	call   c0003a49 <console_acquire>
c0003abd:	8b 45 08             	mov    0x8(%ebp),%eax
c0003ac0:	89 04 24             	mov    %eax,(%esp)
c0003ac3:	e8 d3 e7 ff ff       	call   c000229b <put_int>
c0003ac8:	e8 90 ff ff ff       	call   c0003a5d <console_release>
c0003acd:	c9                   	leave  
c0003ace:	c3                   	ret    

c0003acf <sema_init>:
c0003acf:	55                   	push   %ebp
c0003ad0:	89 e5                	mov    %esp,%ebp
c0003ad2:	83 ec 28             	sub    $0x28,%esp
c0003ad5:	8b 45 0c             	mov    0xc(%ebp),%eax
c0003ad8:	88 45 f4             	mov    %al,-0xc(%ebp)
c0003adb:	8b 45 08             	mov    0x8(%ebp),%eax
c0003ade:	0f b6 55 f4          	movzbl -0xc(%ebp),%edx
c0003ae2:	88 10                	mov    %dl,(%eax)
c0003ae4:	8b 45 08             	mov    0x8(%ebp),%eax
c0003ae7:	83 c0 04             	add    $0x4,%eax
c0003aea:	89 04 24             	mov    %eax,(%esp)
c0003aed:	e8 49 fd ff ff       	call   c000383b <list_init>
c0003af2:	c9                   	leave  
c0003af3:	c3                   	ret    

c0003af4 <lock_init>:
c0003af4:	55                   	push   %ebp
c0003af5:	89 e5                	mov    %esp,%ebp
c0003af7:	83 ec 18             	sub    $0x18,%esp
c0003afa:	8b 45 08             	mov    0x8(%ebp),%eax
c0003afd:	c7 00 00 00 00 00    	movl   $0x0,(%eax)
c0003b03:	8b 45 08             	mov    0x8(%ebp),%eax
c0003b06:	c7 40 18 00 00 00 00 	movl   $0x0,0x18(%eax)
c0003b0d:	8b 45 08             	mov    0x8(%ebp),%eax
c0003b10:	83 c0 04             	add    $0x4,%eax
c0003b13:	c7 44 24 04 01 00 00 	movl   $0x1,0x4(%esp)
c0003b1a:	00 
c0003b1b:	89 04 24             	mov    %eax,(%esp)
c0003b1e:	e8 ac ff ff ff       	call   c0003acf <sema_init>
c0003b23:	c9                   	leave  
c0003b24:	c3                   	ret    

c0003b25 <sema_down>:
c0003b25:	55                   	push   %ebp
c0003b26:	89 e5                	mov    %esp,%ebp
c0003b28:	83 ec 28             	sub    $0x28,%esp
c0003b2b:	e8 b6 de ff ff       	call   c00019e6 <intr_disable>
c0003b30:	89 45 f4             	mov    %eax,-0xc(%ebp)
c0003b33:	e9 aa 00 00 00       	jmp    c0003be2 <sema_down+0xbd>
c0003b38:	e8 5e f7 ff ff       	call   c000329b <running_thread>
c0003b3d:	8d 50 20             	lea    0x20(%eax),%edx
c0003b40:	8b 45 08             	mov    0x8(%ebp),%eax
c0003b43:	83 c0 04             	add    $0x4,%eax
c0003b46:	89 54 24 04          	mov    %edx,0x4(%esp)
c0003b4a:	89 04 24             	mov    %eax,(%esp)
c0003b4d:	e8 e6 fd ff ff       	call   c0003938 <elem_find>
c0003b52:	85 c0                	test   %eax,%eax
c0003b54:	74 24                	je     c0003b7a <sema_down+0x55>
c0003b56:	c7 44 24 0c 08 5a 00 	movl   $0xc0005a08,0xc(%esp)
c0003b5d:	c0 
c0003b5e:	c7 44 24 08 2d 5b 00 	movl   $0xc0005b2d,0x8(%esp)
c0003b65:	c0 
c0003b66:	c7 44 24 04 19 00 00 	movl   $0x19,0x4(%esp)
c0003b6d:	00 
c0003b6e:	c7 04 24 44 5a 00 c0 	movl   $0xc0005a44,(%esp)
c0003b75:	e8 a8 e7 ff ff       	call   c0002322 <panic_spin>
c0003b7a:	e8 1c f7 ff ff       	call   c000329b <running_thread>
c0003b7f:	8d 50 20             	lea    0x20(%eax),%edx
c0003b82:	8b 45 08             	mov    0x8(%ebp),%eax
c0003b85:	83 c0 04             	add    $0x4,%eax
c0003b88:	89 54 24 04          	mov    %edx,0x4(%esp)
c0003b8c:	89 04 24             	mov    %eax,(%esp)
c0003b8f:	e8 a4 fd ff ff       	call   c0003938 <elem_find>
c0003b94:	85 c0                	test   %eax,%eax
c0003b96:	74 24                	je     c0003bbc <sema_down+0x97>
c0003b98:	c7 44 24 0c 54 5a 00 	movl   $0xc0005a54,0xc(%esp)
c0003b9f:	c0 
c0003ba0:	c7 44 24 08 2d 5b 00 	movl   $0xc0005b2d,0x8(%esp)
c0003ba7:	c0 
c0003ba8:	c7 44 24 04 1c 00 00 	movl   $0x1c,0x4(%esp)
c0003baf:	00 
c0003bb0:	c7 04 24 44 5a 00 c0 	movl   $0xc0005a44,(%esp)
c0003bb7:	e8 66 e7 ff ff       	call   c0002322 <panic_spin>
c0003bbc:	e8 da f6 ff ff       	call   c000329b <running_thread>
c0003bc1:	8d 50 20             	lea    0x20(%eax),%edx
c0003bc4:	8b 45 08             	mov    0x8(%ebp),%eax
c0003bc7:	83 c0 04             	add    $0x4,%eax
c0003bca:	89 54 24 04          	mov    %edx,0x4(%esp)
c0003bce:	89 04 24             	mov    %eax,(%esp)
c0003bd1:	e8 f0 fc ff ff       	call   c00038c6 <list_append>
c0003bd6:	c7 04 24 02 00 00 00 	movl   $0x2,(%esp)
c0003bdd:	e8 aa fa ff ff       	call   c000368c <thread_block>
c0003be2:	8b 45 08             	mov    0x8(%ebp),%eax
c0003be5:	0f b6 00             	movzbl (%eax),%eax
c0003be8:	84 c0                	test   %al,%al
c0003bea:	0f 84 48 ff ff ff    	je     c0003b38 <sema_down+0x13>
c0003bf0:	8b 45 08             	mov    0x8(%ebp),%eax
c0003bf3:	0f b6 00             	movzbl (%eax),%eax
c0003bf6:	8d 50 ff             	lea    -0x1(%eax),%edx
c0003bf9:	8b 45 08             	mov    0x8(%ebp),%eax
c0003bfc:	88 10                	mov    %dl,(%eax)
c0003bfe:	8b 45 08             	mov    0x8(%ebp),%eax
c0003c01:	0f b6 00             	movzbl (%eax),%eax
c0003c04:	84 c0                	test   %al,%al
c0003c06:	74 24                	je     c0003c2c <sema_down+0x107>
c0003c08:	c7 44 24 0c 88 5a 00 	movl   $0xc0005a88,0xc(%esp)
c0003c0f:	c0 
c0003c10:	c7 44 24 08 2d 5b 00 	movl   $0xc0005b2d,0x8(%esp)
c0003c17:	c0 
c0003c18:	c7 44 24 04 24 00 00 	movl   $0x24,0x4(%esp)
c0003c1f:	00 
c0003c20:	c7 04 24 44 5a 00 c0 	movl   $0xc0005a44,(%esp)
c0003c27:	e8 f6 e6 ff ff       	call   c0002322 <panic_spin>
c0003c2c:	8b 45 f4             	mov    -0xc(%ebp),%eax
c0003c2f:	89 04 24             	mov    %eax,(%esp)
c0003c32:	e8 d8 dd ff ff       	call   c0001a0f <intr_set_status>
c0003c37:	c9                   	leave  
c0003c38:	c3                   	ret    

c0003c39 <sema_up>:
c0003c39:	55                   	push   %ebp
c0003c3a:	89 e5                	mov    %esp,%ebp
c0003c3c:	83 ec 28             	sub    $0x28,%esp
c0003c3f:	e8 a2 dd ff ff       	call   c00019e6 <intr_disable>
c0003c44:	89 45 f4             	mov    %eax,-0xc(%ebp)
c0003c47:	8b 45 08             	mov    0x8(%ebp),%eax
c0003c4a:	0f b6 00             	movzbl (%eax),%eax
c0003c4d:	84 c0                	test   %al,%al
c0003c4f:	74 24                	je     c0003c75 <sema_up+0x3c>
c0003c51:	c7 44 24 0c 88 5a 00 	movl   $0xc0005a88,0xc(%esp)
c0003c58:	c0 
c0003c59:	c7 44 24 08 25 5b 00 	movl   $0xc0005b25,0x8(%esp)
c0003c60:	c0 
c0003c61:	c7 44 24 04 2d 00 00 	movl   $0x2d,0x4(%esp)
c0003c68:	00 
c0003c69:	c7 04 24 44 5a 00 c0 	movl   $0xc0005a44,(%esp)
c0003c70:	e8 ad e6 ff ff       	call   c0002322 <panic_spin>
c0003c75:	8b 45 08             	mov    0x8(%ebp),%eax
c0003c78:	83 c0 04             	add    $0x4,%eax
c0003c7b:	89 04 24             	mov    %eax,(%esp)
c0003c7e:	e8 83 fd ff ff       	call   c0003a06 <list_empty>
c0003c83:	85 c0                	test   %eax,%eax
c0003c85:	75 1f                	jne    c0003ca6 <sema_up+0x6d>
c0003c87:	8b 45 08             	mov    0x8(%ebp),%eax
c0003c8a:	83 c0 04             	add    $0x4,%eax
c0003c8d:	89 04 24             	mov    %eax,(%esp)
c0003c90:	e8 84 fc ff ff       	call   c0003919 <list_pop>
c0003c95:	83 e8 20             	sub    $0x20,%eax
c0003c98:	89 45 f0             	mov    %eax,-0x10(%ebp)
c0003c9b:	8b 45 f0             	mov    -0x10(%ebp),%eax
c0003c9e:	89 04 24             	mov    %eax,(%esp)
c0003ca1:	e8 4d fa ff ff       	call   c00036f3 <thread_unblock>
c0003ca6:	8b 45 08             	mov    0x8(%ebp),%eax
c0003ca9:	0f b6 00             	movzbl (%eax),%eax
c0003cac:	8d 50 01             	lea    0x1(%eax),%edx
c0003caf:	8b 45 08             	mov    0x8(%ebp),%eax
c0003cb2:	88 10                	mov    %dl,(%eax)
c0003cb4:	8b 45 08             	mov    0x8(%ebp),%eax
c0003cb7:	0f b6 00             	movzbl (%eax),%eax
c0003cba:	3c 01                	cmp    $0x1,%al
c0003cbc:	74 24                	je     c0003ce2 <sema_up+0xa9>
c0003cbe:	c7 44 24 0c 9a 5a 00 	movl   $0xc0005a9a,0xc(%esp)
c0003cc5:	c0 
c0003cc6:	c7 44 24 08 25 5b 00 	movl   $0xc0005b25,0x8(%esp)
c0003ccd:	c0 
c0003cce:	c7 44 24 04 33 00 00 	movl   $0x33,0x4(%esp)
c0003cd5:	00 
c0003cd6:	c7 04 24 44 5a 00 c0 	movl   $0xc0005a44,(%esp)
c0003cdd:	e8 40 e6 ff ff       	call   c0002322 <panic_spin>
c0003ce2:	8b 45 f4             	mov    -0xc(%ebp),%eax
c0003ce5:	89 04 24             	mov    %eax,(%esp)
c0003ce8:	e8 22 dd ff ff       	call   c0001a0f <intr_set_status>
c0003ced:	c9                   	leave  
c0003cee:	c3                   	ret    

c0003cef <lock_acquire>:
c0003cef:	55                   	push   %ebp
c0003cf0:	89 e5                	mov    %esp,%ebp
c0003cf2:	53                   	push   %ebx
c0003cf3:	83 ec 14             	sub    $0x14,%esp
c0003cf6:	8b 45 08             	mov    0x8(%ebp),%eax
c0003cf9:	8b 18                	mov    (%eax),%ebx
c0003cfb:	e8 9b f5 ff ff       	call   c000329b <running_thread>
c0003d00:	39 c3                	cmp    %eax,%ebx
c0003d02:	74 52                	je     c0003d56 <lock_acquire+0x67>
c0003d04:	8b 45 08             	mov    0x8(%ebp),%eax
c0003d07:	83 c0 04             	add    $0x4,%eax
c0003d0a:	89 04 24             	mov    %eax,(%esp)
c0003d0d:	e8 13 fe ff ff       	call   c0003b25 <sema_down>
c0003d12:	e8 84 f5 ff ff       	call   c000329b <running_thread>
c0003d17:	8b 55 08             	mov    0x8(%ebp),%edx
c0003d1a:	89 02                	mov    %eax,(%edx)
c0003d1c:	8b 45 08             	mov    0x8(%ebp),%eax
c0003d1f:	8b 40 18             	mov    0x18(%eax),%eax
c0003d22:	85 c0                	test   %eax,%eax
c0003d24:	74 24                	je     c0003d4a <lock_acquire+0x5b>
c0003d26:	c7 44 24 0c ac 5a 00 	movl   $0xc0005aac,0xc(%esp)
c0003d2d:	c0 
c0003d2e:	c7 44 24 08 18 5b 00 	movl   $0xc0005b18,0x8(%esp)
c0003d35:	c0 
c0003d36:	c7 44 24 04 3e 00 00 	movl   $0x3e,0x4(%esp)
c0003d3d:	00 
c0003d3e:	c7 04 24 44 5a 00 c0 	movl   $0xc0005a44,(%esp)
c0003d45:	e8 d8 e5 ff ff       	call   c0002322 <panic_spin>
c0003d4a:	8b 45 08             	mov    0x8(%ebp),%eax
c0003d4d:	c7 40 18 01 00 00 00 	movl   $0x1,0x18(%eax)
c0003d54:	eb 0f                	jmp    c0003d65 <lock_acquire+0x76>
c0003d56:	8b 45 08             	mov    0x8(%ebp),%eax
c0003d59:	8b 40 18             	mov    0x18(%eax),%eax
c0003d5c:	8d 50 01             	lea    0x1(%eax),%edx
c0003d5f:	8b 45 08             	mov    0x8(%ebp),%eax
c0003d62:	89 50 18             	mov    %edx,0x18(%eax)
c0003d65:	83 c4 14             	add    $0x14,%esp
c0003d68:	5b                   	pop    %ebx
c0003d69:	5d                   	pop    %ebp
c0003d6a:	c3                   	ret    

c0003d6b <lock_release>:
c0003d6b:	55                   	push   %ebp
c0003d6c:	89 e5                	mov    %esp,%ebp
c0003d6e:	53                   	push   %ebx
c0003d6f:	83 ec 14             	sub    $0x14,%esp
c0003d72:	8b 45 08             	mov    0x8(%ebp),%eax
c0003d75:	8b 18                	mov    (%eax),%ebx
c0003d77:	e8 1f f5 ff ff       	call   c000329b <running_thread>
c0003d7c:	39 c3                	cmp    %eax,%ebx
c0003d7e:	74 24                	je     c0003da4 <lock_release+0x39>
c0003d80:	c7 44 24 0c cc 5a 00 	movl   $0xc0005acc,0xc(%esp)
c0003d87:	c0 
c0003d88:	c7 44 24 08 0b 5b 00 	movl   $0xc0005b0b,0x8(%esp)
c0003d8f:	c0 
c0003d90:	c7 44 24 04 47 00 00 	movl   $0x47,0x4(%esp)
c0003d97:	00 
c0003d98:	c7 04 24 44 5a 00 c0 	movl   $0xc0005a44,(%esp)
c0003d9f:	e8 7e e5 ff ff       	call   c0002322 <panic_spin>
c0003da4:	8b 45 08             	mov    0x8(%ebp),%eax
c0003da7:	8b 40 18             	mov    0x18(%eax),%eax
c0003daa:	83 f8 01             	cmp    $0x1,%eax
c0003dad:	76 11                	jbe    c0003dc0 <lock_release+0x55>
c0003daf:	8b 45 08             	mov    0x8(%ebp),%eax
c0003db2:	8b 40 18             	mov    0x18(%eax),%eax
c0003db5:	8d 50 ff             	lea    -0x1(%eax),%edx
c0003db8:	8b 45 08             	mov    0x8(%ebp),%eax
c0003dbb:	89 50 18             	mov    %edx,0x18(%eax)
c0003dbe:	eb 50                	jmp    c0003e10 <lock_release+0xa5>
c0003dc0:	8b 45 08             	mov    0x8(%ebp),%eax
c0003dc3:	8b 40 18             	mov    0x18(%eax),%eax
c0003dc6:	83 f8 01             	cmp    $0x1,%eax
c0003dc9:	74 24                	je     c0003def <lock_release+0x84>
c0003dcb:	c7 44 24 0c ee 5a 00 	movl   $0xc0005aee,0xc(%esp)
c0003dd2:	c0 
c0003dd3:	c7 44 24 08 0b 5b 00 	movl   $0xc0005b0b,0x8(%esp)
c0003dda:	c0 
c0003ddb:	c7 44 24 04 4c 00 00 	movl   $0x4c,0x4(%esp)
c0003de2:	00 
c0003de3:	c7 04 24 44 5a 00 c0 	movl   $0xc0005a44,(%esp)
c0003dea:	e8 33 e5 ff ff       	call   c0002322 <panic_spin>
c0003def:	8b 45 08             	mov    0x8(%ebp),%eax
c0003df2:	c7 00 00 00 00 00    	movl   $0x0,(%eax)
c0003df8:	8b 45 08             	mov    0x8(%ebp),%eax
c0003dfb:	c7 40 18 00 00 00 00 	movl   $0x0,0x18(%eax)
c0003e02:	8b 45 08             	mov    0x8(%ebp),%eax
c0003e05:	83 c0 04             	add    $0x4,%eax
c0003e08:	89 04 24             	mov    %eax,(%esp)
c0003e0b:	e8 29 fe ff ff       	call   c0003c39 <sema_up>
c0003e10:	83 c4 14             	add    $0x14,%esp
c0003e13:	5b                   	pop    %ebx
c0003e14:	5d                   	pop    %ebp
c0003e15:	c3                   	ret    

c0003e16 <inb>:
c0003e16:	55                   	push   %ebp
c0003e17:	89 e5                	mov    %esp,%ebp
c0003e19:	53                   	push   %ebx
c0003e1a:	83 ec 14             	sub    $0x14,%esp
c0003e1d:	8b 45 08             	mov    0x8(%ebp),%eax
c0003e20:	66 89 45 e8          	mov    %ax,-0x18(%ebp)
c0003e24:	0f b7 55 e8          	movzwl -0x18(%ebp),%edx
c0003e28:	66 89 55 ea          	mov    %dx,-0x16(%ebp)
c0003e2c:	0f b7 55 ea          	movzwl -0x16(%ebp),%edx
c0003e30:	ec                   	in     (%dx),%al
c0003e31:	89 c3                	mov    %eax,%ebx
c0003e33:	88 5d fb             	mov    %bl,-0x5(%ebp)
c0003e36:	0f b6 45 fb          	movzbl -0x5(%ebp),%eax
c0003e3a:	83 c4 14             	add    $0x14,%esp
c0003e3d:	5b                   	pop    %ebx
c0003e3e:	5d                   	pop    %ebp
c0003e3f:	c3                   	ret    

c0003e40 <intr_keyboard_handler>:
c0003e40:	55                   	push   %ebp
c0003e41:	89 e5                	mov    %esp,%ebp
c0003e43:	83 ec 38             	sub    $0x38,%esp
c0003e46:	a1 20 83 00 c0       	mov    0xc0008320,%eax
c0003e4b:	89 45 e8             	mov    %eax,-0x18(%ebp)
c0003e4e:	a1 24 83 00 c0       	mov    0xc0008324,%eax
c0003e53:	89 45 e4             	mov    %eax,-0x1c(%ebp)
c0003e56:	a1 2c 83 00 c0       	mov    0xc000832c,%eax
c0003e5b:	89 45 e0             	mov    %eax,-0x20(%ebp)
c0003e5e:	c7 04 24 60 00 00 00 	movl   $0x60,(%esp)
c0003e65:	e8 ac ff ff ff       	call   c0003e16 <inb>
c0003e6a:	0f b6 c0             	movzbl %al,%eax
c0003e6d:	66 89 45 f6          	mov    %ax,-0xa(%ebp)
c0003e71:	66 81 7d f6 e0 00    	cmpw   $0xe0,-0xa(%ebp)
c0003e77:	75 0f                	jne    c0003e88 <intr_keyboard_handler+0x48>
c0003e79:	c7 05 30 83 00 c0 01 	movl   $0x1,0xc0008330
c0003e80:	00 00 00 
c0003e83:	e9 41 02 00 00       	jmp    c00040c9 <intr_keyboard_handler+0x289>
c0003e88:	a1 30 83 00 c0       	mov    0xc0008330,%eax
c0003e8d:	85 c0                	test   %eax,%eax
c0003e8f:	74 10                	je     c0003ea1 <intr_keyboard_handler+0x61>
c0003e91:	66 81 4d f6 00 e0    	orw    $0xe000,-0xa(%ebp)
c0003e97:	c7 05 30 83 00 c0 00 	movl   $0x0,0xc0008330
c0003e9e:	00 00 00 
c0003ea1:	0f b7 45 f6          	movzwl -0xa(%ebp),%eax
c0003ea5:	25 80 00 00 00       	and    $0x80,%eax
c0003eaa:	85 c0                	test   %eax,%eax
c0003eac:	0f 95 c0             	setne  %al
c0003eaf:	0f b6 c0             	movzbl %al,%eax
c0003eb2:	89 45 dc             	mov    %eax,-0x24(%ebp)
c0003eb5:	83 7d dc 00          	cmpl   $0x0,-0x24(%ebp)
c0003eb9:	74 6a                	je     c0003f25 <intr_keyboard_handler+0xe5>
c0003ebb:	66 81 65 f6 7f ff    	andw   $0xff7f,-0xa(%ebp)
c0003ec1:	0f b7 45 f6          	movzwl -0xa(%ebp),%eax
c0003ec5:	66 89 45 da          	mov    %ax,-0x26(%ebp)
c0003ec9:	66 83 7d da 1d       	cmpw   $0x1d,-0x26(%ebp)
c0003ece:	74 08                	je     c0003ed8 <intr_keyboard_handler+0x98>
c0003ed0:	66 81 7d da 1d e0    	cmpw   $0xe01d,-0x26(%ebp)
c0003ed6:	75 0c                	jne    c0003ee4 <intr_keyboard_handler+0xa4>
c0003ed8:	c7 05 20 83 00 c0 00 	movl   $0x0,0xc0008320
c0003edf:	00 00 00 
c0003ee2:	eb 3c                	jmp    c0003f20 <intr_keyboard_handler+0xe0>
c0003ee4:	66 83 7d da 2a       	cmpw   $0x2a,-0x26(%ebp)
c0003ee9:	74 07                	je     c0003ef2 <intr_keyboard_handler+0xb2>
c0003eeb:	66 83 7d da 36       	cmpw   $0x36,-0x26(%ebp)
c0003ef0:	75 0c                	jne    c0003efe <intr_keyboard_handler+0xbe>
c0003ef2:	c7 05 24 83 00 c0 00 	movl   $0x0,0xc0008324
c0003ef9:	00 00 00 
c0003efc:	eb 22                	jmp    c0003f20 <intr_keyboard_handler+0xe0>
c0003efe:	66 83 7d da 38       	cmpw   $0x38,-0x26(%ebp)
c0003f03:	74 0c                	je     c0003f11 <intr_keyboard_handler+0xd1>
c0003f05:	66 81 7d da 38 e0    	cmpw   $0xe038,-0x26(%ebp)
c0003f0b:	0f 85 b1 01 00 00    	jne    c00040c2 <intr_keyboard_handler+0x282>
c0003f11:	c7 05 28 83 00 c0 00 	movl   $0x0,0xc0008328
c0003f18:	00 00 00 
c0003f1b:	e9 a2 01 00 00       	jmp    c00040c2 <intr_keyboard_handler+0x282>
c0003f20:	e9 9d 01 00 00       	jmp    c00040c2 <intr_keyboard_handler+0x282>
c0003f25:	66 83 7d f6 00       	cmpw   $0x0,-0xa(%ebp)
c0003f2a:	74 07                	je     c0003f33 <intr_keyboard_handler+0xf3>
c0003f2c:	66 83 7d f6 3a       	cmpw   $0x3a,-0xa(%ebp)
c0003f31:	76 14                	jbe    c0003f47 <intr_keyboard_handler+0x107>
c0003f33:	66 81 7d f6 38 e0    	cmpw   $0xe038,-0xa(%ebp)
c0003f39:	74 0c                	je     c0003f47 <intr_keyboard_handler+0x107>
c0003f3b:	66 81 7d f6 1d e0    	cmpw   $0xe01d,-0xa(%ebp)
c0003f41:	0f 85 6d 01 00 00    	jne    c00040b4 <intr_keyboard_handler+0x274>
c0003f47:	c7 45 f0 00 00 00 00 	movl   $0x0,-0x10(%ebp)
c0003f4e:	66 83 7d f6 0d       	cmpw   $0xd,-0xa(%ebp)
c0003f53:	76 3f                	jbe    c0003f94 <intr_keyboard_handler+0x154>
c0003f55:	66 83 7d f6 29       	cmpw   $0x29,-0xa(%ebp)
c0003f5a:	74 38                	je     c0003f94 <intr_keyboard_handler+0x154>
c0003f5c:	66 83 7d f6 1a       	cmpw   $0x1a,-0xa(%ebp)
c0003f61:	74 31                	je     c0003f94 <intr_keyboard_handler+0x154>
c0003f63:	66 83 7d f6 1b       	cmpw   $0x1b,-0xa(%ebp)
c0003f68:	74 2a                	je     c0003f94 <intr_keyboard_handler+0x154>
c0003f6a:	66 83 7d f6 2b       	cmpw   $0x2b,-0xa(%ebp)
c0003f6f:	74 23                	je     c0003f94 <intr_keyboard_handler+0x154>
c0003f71:	66 83 7d f6 27       	cmpw   $0x27,-0xa(%ebp)
c0003f76:	74 1c                	je     c0003f94 <intr_keyboard_handler+0x154>
c0003f78:	66 83 7d f6 28       	cmpw   $0x28,-0xa(%ebp)
c0003f7d:	74 15                	je     c0003f94 <intr_keyboard_handler+0x154>
c0003f7f:	66 83 7d f6 33       	cmpw   $0x33,-0xa(%ebp)
c0003f84:	74 0e                	je     c0003f94 <intr_keyboard_handler+0x154>
c0003f86:	66 83 7d f6 34       	cmpw   $0x34,-0xa(%ebp)
c0003f8b:	74 07                	je     c0003f94 <intr_keyboard_handler+0x154>
c0003f8d:	66 83 7d f6 35       	cmpw   $0x35,-0xa(%ebp)
c0003f92:	75 0f                	jne    c0003fa3 <intr_keyboard_handler+0x163>
c0003f94:	83 7d e4 00          	cmpl   $0x0,-0x1c(%ebp)
c0003f98:	74 3a                	je     c0003fd4 <intr_keyboard_handler+0x194>
c0003f9a:	c7 45 f0 01 00 00 00 	movl   $0x1,-0x10(%ebp)
c0003fa1:	eb 31                	jmp    c0003fd4 <intr_keyboard_handler+0x194>
c0003fa3:	83 7d e4 00          	cmpl   $0x0,-0x1c(%ebp)
c0003fa7:	74 0f                	je     c0003fb8 <intr_keyboard_handler+0x178>
c0003fa9:	83 7d e0 00          	cmpl   $0x0,-0x20(%ebp)
c0003fad:	74 09                	je     c0003fb8 <intr_keyboard_handler+0x178>
c0003faf:	c7 45 f0 00 00 00 00 	movl   $0x0,-0x10(%ebp)
c0003fb6:	eb 1c                	jmp    c0003fd4 <intr_keyboard_handler+0x194>
c0003fb8:	83 7d e4 00          	cmpl   $0x0,-0x1c(%ebp)
c0003fbc:	75 06                	jne    c0003fc4 <intr_keyboard_handler+0x184>
c0003fbe:	83 7d e0 00          	cmpl   $0x0,-0x20(%ebp)
c0003fc2:	74 09                	je     c0003fcd <intr_keyboard_handler+0x18d>
c0003fc4:	c7 45 f0 01 00 00 00 	movl   $0x1,-0x10(%ebp)
c0003fcb:	eb 07                	jmp    c0003fd4 <intr_keyboard_handler+0x194>
c0003fcd:	c7 45 f0 00 00 00 00 	movl   $0x0,-0x10(%ebp)
c0003fd4:	66 81 65 f6 ff 00    	andw   $0xff,-0xa(%ebp)
c0003fda:	0f b7 45 f6          	movzwl -0xa(%ebp),%eax
c0003fde:	88 45 d9             	mov    %al,-0x27(%ebp)
c0003fe1:	0f b6 45 d9          	movzbl -0x27(%ebp),%eax
c0003fe5:	01 c0                	add    %eax,%eax
c0003fe7:	03 45 f0             	add    -0x10(%ebp),%eax
c0003fea:	05 e0 80 00 c0       	add    $0xc00080e0,%eax
c0003fef:	0f b6 00             	movzbl (%eax),%eax
c0003ff2:	88 45 ef             	mov    %al,-0x11(%ebp)
c0003ff5:	80 7d ef 00          	cmpb   $0x0,-0x11(%ebp)
c0003ff9:	74 4c                	je     c0004047 <intr_keyboard_handler+0x207>
c0003ffb:	83 7d e8 00          	cmpl   $0x0,-0x18(%ebp)
c0003fff:	74 06                	je     c0004007 <intr_keyboard_handler+0x1c7>
c0004001:	80 7d ef 6c          	cmpb   $0x6c,-0x11(%ebp)
c0004005:	74 0c                	je     c0004013 <intr_keyboard_handler+0x1d3>
c0004007:	83 7d e8 00          	cmpl   $0x0,-0x18(%ebp)
c000400b:	74 10                	je     c000401d <intr_keyboard_handler+0x1dd>
c000400d:	80 7d ef 75          	cmpb   $0x75,-0x11(%ebp)
c0004011:	75 0a                	jne    c000401d <intr_keyboard_handler+0x1dd>
c0004013:	0f b6 45 ef          	movzbl -0x11(%ebp),%eax
c0004017:	83 e8 61             	sub    $0x61,%eax
c000401a:	88 45 ef             	mov    %al,-0x11(%ebp)
c000401d:	c7 04 24 00 86 00 c0 	movl   $0xc0008600,(%esp)
c0004024:	e8 3f 01 00 00       	call   c0004168 <ioq_full>
c0004029:	85 c0                	test   %eax,%eax
c000402b:	0f 85 94 00 00 00    	jne    c00040c5 <intr_keyboard_handler+0x285>
c0004031:	0f be 45 ef          	movsbl -0x11(%ebp),%eax
c0004035:	89 44 24 04          	mov    %eax,0x4(%esp)
c0004039:	c7 04 24 00 86 00 c0 	movl   $0xc0008600,(%esp)
c0004040:	e8 07 03 00 00       	call   c000434c <ioq_putchar>
c0004045:	eb 7e                	jmp    c00040c5 <intr_keyboard_handler+0x285>
c0004047:	66 83 7d f6 1d       	cmpw   $0x1d,-0xa(%ebp)
c000404c:	74 08                	je     c0004056 <intr_keyboard_handler+0x216>
c000404e:	66 81 7d f6 1d e0    	cmpw   $0xe01d,-0xa(%ebp)
c0004054:	75 0c                	jne    c0004062 <intr_keyboard_handler+0x222>
c0004056:	c7 05 20 83 00 c0 01 	movl   $0x1,0xc0008320
c000405d:	00 00 00 
c0004060:	eb 50                	jmp    c00040b2 <intr_keyboard_handler+0x272>
c0004062:	66 83 7d f6 2a       	cmpw   $0x2a,-0xa(%ebp)
c0004067:	74 07                	je     c0004070 <intr_keyboard_handler+0x230>
c0004069:	66 83 7d f6 36       	cmpw   $0x36,-0xa(%ebp)
c000406e:	75 0c                	jne    c000407c <intr_keyboard_handler+0x23c>
c0004070:	c7 05 24 83 00 c0 01 	movl   $0x1,0xc0008324
c0004077:	00 00 00 
c000407a:	eb 36                	jmp    c00040b2 <intr_keyboard_handler+0x272>
c000407c:	66 83 7d f6 38       	cmpw   $0x38,-0xa(%ebp)
c0004081:	74 08                	je     c000408b <intr_keyboard_handler+0x24b>
c0004083:	66 81 7d f6 38 e0    	cmpw   $0xe038,-0xa(%ebp)
c0004089:	75 0c                	jne    c0004097 <intr_keyboard_handler+0x257>
c000408b:	c7 05 28 83 00 c0 01 	movl   $0x1,0xc0008328
c0004092:	00 00 00 
c0004095:	eb 1b                	jmp    c00040b2 <intr_keyboard_handler+0x272>
c0004097:	66 83 7d f6 3a       	cmpw   $0x3a,-0xa(%ebp)
c000409c:	75 2a                	jne    c00040c8 <intr_keyboard_handler+0x288>
c000409e:	a1 2c 83 00 c0       	mov    0xc000832c,%eax
c00040a3:	85 c0                	test   %eax,%eax
c00040a5:	0f 94 c0             	sete   %al
c00040a8:	0f b6 c0             	movzbl %al,%eax
c00040ab:	a3 2c 83 00 c0       	mov    %eax,0xc000832c
c00040b0:	eb 16                	jmp    c00040c8 <intr_keyboard_handler+0x288>
c00040b2:	eb 14                	jmp    c00040c8 <intr_keyboard_handler+0x288>
c00040b4:	c7 04 24 37 5b 00 c0 	movl   $0xc0005b37,(%esp)
c00040bb:	e8 f0 e0 ff ff       	call   c00021b0 <put_str>
c00040c0:	eb 07                	jmp    c00040c9 <intr_keyboard_handler+0x289>
c00040c2:	90                   	nop
c00040c3:	eb 04                	jmp    c00040c9 <intr_keyboard_handler+0x289>
c00040c5:	90                   	nop
c00040c6:	eb 01                	jmp    c00040c9 <intr_keyboard_handler+0x289>
c00040c8:	90                   	nop
c00040c9:	c9                   	leave  
c00040ca:	c3                   	ret    

c00040cb <keyboard_init>:
c00040cb:	55                   	push   %ebp
c00040cc:	89 e5                	mov    %esp,%ebp
c00040ce:	83 ec 18             	sub    $0x18,%esp
c00040d1:	c7 04 24 44 5b 00 c0 	movl   $0xc0005b44,(%esp)
c00040d8:	e8 d3 e0 ff ff       	call   c00021b0 <put_str>
c00040dd:	c7 04 24 00 86 00 c0 	movl   $0xc0008600,(%esp)
c00040e4:	e8 22 00 00 00       	call   c000410b <ioqueue_init>
c00040e9:	c7 44 24 04 40 3e 00 	movl   $0xc0003e40,0x4(%esp)
c00040f0:	c0 
c00040f1:	c7 04 24 21 00 00 00 	movl   $0x21,(%esp)
c00040f8:	e8 59 d9 ff ff       	call   c0001a56 <register_handler>
c00040fd:	c7 04 24 59 5b 00 c0 	movl   $0xc0005b59,(%esp)
c0004104:	e8 a7 e0 ff ff       	call   c00021b0 <put_str>
c0004109:	c9                   	leave  
c000410a:	c3                   	ret    

c000410b <ioqueue_init>:
c000410b:	55                   	push   %ebp
c000410c:	89 e5                	mov    %esp,%ebp
c000410e:	83 ec 18             	sub    $0x18,%esp
c0004111:	8b 45 08             	mov    0x8(%ebp),%eax
c0004114:	89 04 24             	mov    %eax,(%esp)
c0004117:	e8 d8 f9 ff ff       	call   c0003af4 <lock_init>
c000411c:	8b 45 08             	mov    0x8(%ebp),%eax
c000411f:	c7 40 20 00 00 00 00 	movl   $0x0,0x20(%eax)
c0004126:	8b 45 08             	mov    0x8(%ebp),%eax
c0004129:	8b 50 20             	mov    0x20(%eax),%edx
c000412c:	8b 45 08             	mov    0x8(%ebp),%eax
c000412f:	89 50 1c             	mov    %edx,0x1c(%eax)
c0004132:	8b 45 08             	mov    0x8(%ebp),%eax
c0004135:	c7 40 68 00 00 00 00 	movl   $0x0,0x68(%eax)
c000413c:	8b 45 08             	mov    0x8(%ebp),%eax
c000413f:	8b 50 68             	mov    0x68(%eax),%edx
c0004142:	8b 45 08             	mov    0x8(%ebp),%eax
c0004145:	89 50 64             	mov    %edx,0x64(%eax)
c0004148:	c9                   	leave  
c0004149:	c3                   	ret    

c000414a <next_pos>:
c000414a:	55                   	push   %ebp
c000414b:	89 e5                	mov    %esp,%ebp
c000414d:	8b 45 08             	mov    0x8(%ebp),%eax
c0004150:	8d 50 01             	lea    0x1(%eax),%edx
c0004153:	89 d0                	mov    %edx,%eax
c0004155:	c1 f8 1f             	sar    $0x1f,%eax
c0004158:	c1 e8 1a             	shr    $0x1a,%eax
c000415b:	01 c2                	add    %eax,%edx
c000415d:	83 e2 3f             	and    $0x3f,%edx
c0004160:	89 d1                	mov    %edx,%ecx
c0004162:	29 c1                	sub    %eax,%ecx
c0004164:	89 c8                	mov    %ecx,%eax
c0004166:	5d                   	pop    %ebp
c0004167:	c3                   	ret    

c0004168 <ioq_full>:
c0004168:	55                   	push   %ebp
c0004169:	89 e5                	mov    %esp,%ebp
c000416b:	83 ec 18             	sub    $0x18,%esp
c000416e:	e8 ba d8 ff ff       	call   c0001a2d <intr_get_status>
c0004173:	85 c0                	test   %eax,%eax
c0004175:	74 24                	je     c000419b <ioq_full+0x33>
c0004177:	c7 44 24 0c 70 5b 00 	movl   $0xc0005b70,0xc(%esp)
c000417e:	c0 
c000417f:	c7 44 24 08 04 5c 00 	movl   $0xc0005c04,0x8(%esp)
c0004186:	c0 
c0004187:	c7 44 24 04 14 00 00 	movl   $0x14,0x4(%esp)
c000418e:	00 
c000418f:	c7 04 24 8e 5b 00 c0 	movl   $0xc0005b8e,(%esp)
c0004196:	e8 87 e1 ff ff       	call   c0002322 <panic_spin>
c000419b:	8b 45 08             	mov    0x8(%ebp),%eax
c000419e:	8b 40 64             	mov    0x64(%eax),%eax
c00041a1:	89 04 24             	mov    %eax,(%esp)
c00041a4:	e8 a1 ff ff ff       	call   c000414a <next_pos>
c00041a9:	8b 55 08             	mov    0x8(%ebp),%edx
c00041ac:	8b 52 68             	mov    0x68(%edx),%edx
c00041af:	39 d0                	cmp    %edx,%eax
c00041b1:	0f 94 c0             	sete   %al
c00041b4:	0f b6 c0             	movzbl %al,%eax
c00041b7:	c9                   	leave  
c00041b8:	c3                   	ret    

c00041b9 <ioq_empty>:
c00041b9:	55                   	push   %ebp
c00041ba:	89 e5                	mov    %esp,%ebp
c00041bc:	83 ec 18             	sub    $0x18,%esp
c00041bf:	e8 69 d8 ff ff       	call   c0001a2d <intr_get_status>
c00041c4:	85 c0                	test   %eax,%eax
c00041c6:	74 24                	je     c00041ec <ioq_empty+0x33>
c00041c8:	c7 44 24 0c 70 5b 00 	movl   $0xc0005b70,0xc(%esp)
c00041cf:	c0 
c00041d0:	c7 44 24 08 fa 5b 00 	movl   $0xc0005bfa,0x8(%esp)
c00041d7:	c0 
c00041d8:	c7 44 24 04 1a 00 00 	movl   $0x1a,0x4(%esp)
c00041df:	00 
c00041e0:	c7 04 24 8e 5b 00 c0 	movl   $0xc0005b8e,(%esp)
c00041e7:	e8 36 e1 ff ff       	call   c0002322 <panic_spin>
c00041ec:	8b 45 08             	mov    0x8(%ebp),%eax
c00041ef:	8b 50 64             	mov    0x64(%eax),%edx
c00041f2:	8b 45 08             	mov    0x8(%ebp),%eax
c00041f5:	8b 40 68             	mov    0x68(%eax),%eax
c00041f8:	39 c2                	cmp    %eax,%edx
c00041fa:	0f 94 c0             	sete   %al
c00041fd:	0f b6 c0             	movzbl %al,%eax
c0004200:	c9                   	leave  
c0004201:	c3                   	ret    

c0004202 <ioq_wait>:
c0004202:	55                   	push   %ebp
c0004203:	89 e5                	mov    %esp,%ebp
c0004205:	83 ec 18             	sub    $0x18,%esp
c0004208:	8b 45 08             	mov    0x8(%ebp),%eax
c000420b:	8b 00                	mov    (%eax),%eax
c000420d:	85 c0                	test   %eax,%eax
c000420f:	75 06                	jne    c0004217 <ioq_wait+0x15>
c0004211:	83 7d 08 00          	cmpl   $0x0,0x8(%ebp)
c0004215:	75 24                	jne    c000423b <ioq_wait+0x39>
c0004217:	c7 44 24 0c a0 5b 00 	movl   $0xc0005ba0,0xc(%esp)
c000421e:	c0 
c000421f:	c7 44 24 08 f1 5b 00 	movl   $0xc0005bf1,0x8(%esp)
c0004226:	c0 
c0004227:	c7 44 24 04 20 00 00 	movl   $0x20,0x4(%esp)
c000422e:	00 
c000422f:	c7 04 24 8e 5b 00 c0 	movl   $0xc0005b8e,(%esp)
c0004236:	e8 e7 e0 ff ff       	call   c0002322 <panic_spin>
c000423b:	e8 5b f0 ff ff       	call   c000329b <running_thread>
c0004240:	8b 55 08             	mov    0x8(%ebp),%edx
c0004243:	89 02                	mov    %eax,(%edx)
c0004245:	c7 04 24 02 00 00 00 	movl   $0x2,(%esp)
c000424c:	e8 3b f4 ff ff       	call   c000368c <thread_block>
c0004251:	c9                   	leave  
c0004252:	c3                   	ret    

c0004253 <wakeup>:
c0004253:	55                   	push   %ebp
c0004254:	89 e5                	mov    %esp,%ebp
c0004256:	83 ec 18             	sub    $0x18,%esp
c0004259:	8b 45 08             	mov    0x8(%ebp),%eax
c000425c:	8b 00                	mov    (%eax),%eax
c000425e:	85 c0                	test   %eax,%eax
c0004260:	75 24                	jne    c0004286 <wakeup+0x33>
c0004262:	c7 44 24 0c c2 5b 00 	movl   $0xc0005bc2,0xc(%esp)
c0004269:	c0 
c000426a:	c7 44 24 08 ea 5b 00 	movl   $0xc0005bea,0x8(%esp)
c0004271:	c0 
c0004272:	c7 44 24 04 27 00 00 	movl   $0x27,0x4(%esp)
c0004279:	00 
c000427a:	c7 04 24 8e 5b 00 c0 	movl   $0xc0005b8e,(%esp)
c0004281:	e8 9c e0 ff ff       	call   c0002322 <panic_spin>
c0004286:	8b 45 08             	mov    0x8(%ebp),%eax
c0004289:	8b 00                	mov    (%eax),%eax
c000428b:	89 04 24             	mov    %eax,(%esp)
c000428e:	e8 60 f4 ff ff       	call   c00036f3 <thread_unblock>
c0004293:	8b 45 08             	mov    0x8(%ebp),%eax
c0004296:	c7 00 00 00 00 00    	movl   $0x0,(%eax)
c000429c:	c9                   	leave  
c000429d:	c3                   	ret    

c000429e <ioq_getchar>:
c000429e:	55                   	push   %ebp
c000429f:	89 e5                	mov    %esp,%ebp
c00042a1:	83 ec 28             	sub    $0x28,%esp
c00042a4:	e8 84 d7 ff ff       	call   c0001a2d <intr_get_status>
c00042a9:	85 c0                	test   %eax,%eax
c00042ab:	74 4c                	je     c00042f9 <ioq_getchar+0x5b>
c00042ad:	c7 44 24 0c 70 5b 00 	movl   $0xc0005b70,0xc(%esp)
c00042b4:	c0 
c00042b5:	c7 44 24 08 de 5b 00 	movl   $0xc0005bde,0x8(%esp)
c00042bc:	c0 
c00042bd:	c7 44 24 04 2e 00 00 	movl   $0x2e,0x4(%esp)
c00042c4:	00 
c00042c5:	c7 04 24 8e 5b 00 c0 	movl   $0xc0005b8e,(%esp)
c00042cc:	e8 51 e0 ff ff       	call   c0002322 <panic_spin>
c00042d1:	eb 26                	jmp    c00042f9 <ioq_getchar+0x5b>
c00042d3:	8b 45 08             	mov    0x8(%ebp),%eax
c00042d6:	89 04 24             	mov    %eax,(%esp)
c00042d9:	e8 11 fa ff ff       	call   c0003cef <lock_acquire>
c00042de:	8b 45 08             	mov    0x8(%ebp),%eax
c00042e1:	83 c0 20             	add    $0x20,%eax
c00042e4:	89 04 24             	mov    %eax,(%esp)
c00042e7:	e8 16 ff ff ff       	call   c0004202 <ioq_wait>
c00042ec:	8b 45 08             	mov    0x8(%ebp),%eax
c00042ef:	89 04 24             	mov    %eax,(%esp)
c00042f2:	e8 74 fa ff ff       	call   c0003d6b <lock_release>
c00042f7:	eb 01                	jmp    c00042fa <ioq_getchar+0x5c>
c00042f9:	90                   	nop
c00042fa:	8b 45 08             	mov    0x8(%ebp),%eax
c00042fd:	89 04 24             	mov    %eax,(%esp)
c0004300:	e8 b4 fe ff ff       	call   c00041b9 <ioq_empty>
c0004305:	85 c0                	test   %eax,%eax
c0004307:	75 ca                	jne    c00042d3 <ioq_getchar+0x35>
c0004309:	8b 45 08             	mov    0x8(%ebp),%eax
c000430c:	8b 40 68             	mov    0x68(%eax),%eax
c000430f:	8b 55 08             	mov    0x8(%ebp),%edx
c0004312:	0f b6 44 02 24       	movzbl 0x24(%edx,%eax,1),%eax
c0004317:	88 45 f7             	mov    %al,-0x9(%ebp)
c000431a:	8b 45 08             	mov    0x8(%ebp),%eax
c000431d:	8b 40 68             	mov    0x68(%eax),%eax
c0004320:	89 04 24             	mov    %eax,(%esp)
c0004323:	e8 22 fe ff ff       	call   c000414a <next_pos>
c0004328:	8b 55 08             	mov    0x8(%ebp),%edx
c000432b:	89 42 68             	mov    %eax,0x68(%edx)
c000432e:	8b 45 08             	mov    0x8(%ebp),%eax
c0004331:	8b 40 1c             	mov    0x1c(%eax),%eax
c0004334:	85 c0                	test   %eax,%eax
c0004336:	74 0e                	je     c0004346 <ioq_getchar+0xa8>
c0004338:	8b 45 08             	mov    0x8(%ebp),%eax
c000433b:	83 c0 1c             	add    $0x1c,%eax
c000433e:	89 04 24             	mov    %eax,(%esp)
c0004341:	e8 0d ff ff ff       	call   c0004253 <wakeup>
c0004346:	0f b6 45 f7          	movzbl -0x9(%ebp),%eax
c000434a:	c9                   	leave  
c000434b:	c3                   	ret    

c000434c <ioq_putchar>:
c000434c:	55                   	push   %ebp
c000434d:	89 e5                	mov    %esp,%ebp
c000434f:	83 ec 28             	sub    $0x28,%esp
c0004352:	8b 45 0c             	mov    0xc(%ebp),%eax
c0004355:	88 45 f4             	mov    %al,-0xc(%ebp)
c0004358:	e8 d0 d6 ff ff       	call   c0001a2d <intr_get_status>
c000435d:	85 c0                	test   %eax,%eax
c000435f:	74 4c                	je     c00043ad <ioq_putchar+0x61>
c0004361:	c7 44 24 0c 70 5b 00 	movl   $0xc0005b70,0xc(%esp)
c0004368:	c0 
c0004369:	c7 44 24 08 d2 5b 00 	movl   $0xc0005bd2,0x8(%esp)
c0004370:	c0 
c0004371:	c7 44 24 04 45 00 00 	movl   $0x45,0x4(%esp)
c0004378:	00 
c0004379:	c7 04 24 8e 5b 00 c0 	movl   $0xc0005b8e,(%esp)
c0004380:	e8 9d df ff ff       	call   c0002322 <panic_spin>
c0004385:	eb 26                	jmp    c00043ad <ioq_putchar+0x61>
c0004387:	8b 45 08             	mov    0x8(%ebp),%eax
c000438a:	89 04 24             	mov    %eax,(%esp)
c000438d:	e8 5d f9 ff ff       	call   c0003cef <lock_acquire>
c0004392:	8b 45 08             	mov    0x8(%ebp),%eax
c0004395:	83 c0 1c             	add    $0x1c,%eax
c0004398:	89 04 24             	mov    %eax,(%esp)
c000439b:	e8 62 fe ff ff       	call   c0004202 <ioq_wait>
c00043a0:	8b 45 08             	mov    0x8(%ebp),%eax
c00043a3:	89 04 24             	mov    %eax,(%esp)
c00043a6:	e8 c0 f9 ff ff       	call   c0003d6b <lock_release>
c00043ab:	eb 01                	jmp    c00043ae <ioq_putchar+0x62>
c00043ad:	90                   	nop
c00043ae:	8b 45 08             	mov    0x8(%ebp),%eax
c00043b1:	89 04 24             	mov    %eax,(%esp)
c00043b4:	e8 af fd ff ff       	call   c0004168 <ioq_full>
c00043b9:	85 c0                	test   %eax,%eax
c00043bb:	75 ca                	jne    c0004387 <ioq_putchar+0x3b>
c00043bd:	8b 45 08             	mov    0x8(%ebp),%eax
c00043c0:	8b 40 64             	mov    0x64(%eax),%eax
c00043c3:	8b 55 08             	mov    0x8(%ebp),%edx
c00043c6:	0f b6 4d f4          	movzbl -0xc(%ebp),%ecx
c00043ca:	88 4c 02 24          	mov    %cl,0x24(%edx,%eax,1)
c00043ce:	8b 45 08             	mov    0x8(%ebp),%eax
c00043d1:	8b 40 64             	mov    0x64(%eax),%eax
c00043d4:	89 04 24             	mov    %eax,(%esp)
c00043d7:	e8 6e fd ff ff       	call   c000414a <next_pos>
c00043dc:	8b 55 08             	mov    0x8(%ebp),%edx
c00043df:	89 42 64             	mov    %eax,0x64(%edx)
c00043e2:	8b 45 08             	mov    0x8(%ebp),%eax
c00043e5:	8b 40 20             	mov    0x20(%eax),%eax
c00043e8:	85 c0                	test   %eax,%eax
c00043ea:	74 0e                	je     c00043fa <ioq_putchar+0xae>
c00043ec:	8b 45 08             	mov    0x8(%ebp),%eax
c00043ef:	83 c0 20             	add    $0x20,%eax
c00043f2:	89 04 24             	mov    %eax,(%esp)
c00043f5:	e8 59 fe ff ff       	call   c0004253 <wakeup>
c00043fa:	c9                   	leave  
c00043fb:	c3                   	ret    

c00043fc <update_tss_esp>:
c00043fc:	55                   	push   %ebp
c00043fd:	89 e5                	mov    %esp,%ebp
c00043ff:	8b 45 08             	mov    0x8(%ebp),%eax
c0004402:	05 00 10 00 00       	add    $0x1000,%eax
c0004407:	a3 44 83 00 c0       	mov    %eax,0xc0008344
c000440c:	5d                   	pop    %ebp
c000440d:	c3                   	ret    

c000440e <make_gdt_desc>:
c000440e:	55                   	push   %ebp
c000440f:	89 e5                	mov    %esp,%ebp
c0004411:	83 ec 18             	sub    $0x18,%esp
c0004414:	8b 55 14             	mov    0x14(%ebp),%edx
c0004417:	8b 45 18             	mov    0x18(%ebp),%eax
c000441a:	88 55 ec             	mov    %dl,-0x14(%ebp)
c000441d:	88 45 e8             	mov    %al,-0x18(%ebp)
c0004420:	8b 45 0c             	mov    0xc(%ebp),%eax
c0004423:	89 45 fc             	mov    %eax,-0x4(%ebp)
c0004426:	8b 45 10             	mov    0x10(%ebp),%eax
c0004429:	66 89 45 f4          	mov    %ax,-0xc(%ebp)
c000442d:	8b 45 fc             	mov    -0x4(%ebp),%eax
c0004430:	66 89 45 f6          	mov    %ax,-0xa(%ebp)
c0004434:	8b 45 fc             	mov    -0x4(%ebp),%eax
c0004437:	25 00 00 ff 00       	and    $0xff0000,%eax
c000443c:	c1 e8 10             	shr    $0x10,%eax
c000443f:	88 45 f8             	mov    %al,-0x8(%ebp)
c0004442:	0f b6 45 ec          	movzbl -0x14(%ebp),%eax
c0004446:	88 45 f9             	mov    %al,-0x7(%ebp)
c0004449:	8b 45 10             	mov    0x10(%ebp),%eax
c000444c:	25 00 00 0f 00       	and    $0xf0000,%eax
c0004451:	c1 e8 10             	shr    $0x10,%eax
c0004454:	02 45 e8             	add    -0x18(%ebp),%al
c0004457:	88 45 fa             	mov    %al,-0x6(%ebp)
c000445a:	8b 45 fc             	mov    -0x4(%ebp),%eax
c000445d:	c1 e8 18             	shr    $0x18,%eax
c0004460:	88 45 fb             	mov    %al,-0x5(%ebp)
c0004463:	8b 4d 08             	mov    0x8(%ebp),%ecx
c0004466:	8b 45 f4             	mov    -0xc(%ebp),%eax
c0004469:	8b 55 f8             	mov    -0x8(%ebp),%edx
c000446c:	89 01                	mov    %eax,(%ecx)
c000446e:	89 51 04             	mov    %edx,0x4(%ecx)
c0004471:	8b 45 08             	mov    0x8(%ebp),%eax
c0004474:	c9                   	leave  
c0004475:	c2 04 00             	ret    $0x4

c0004478 <tss_init>:
c0004478:	55                   	push   %ebp
c0004479:	89 e5                	mov    %esp,%ebp
c000447b:	53                   	push   %ebx
c000447c:	83 ec 44             	sub    $0x44,%esp
c000447f:	c7 04 24 0d 5c 00 c0 	movl   $0xc0005c0d,(%esp)
c0004486:	e8 25 dd ff ff       	call   c00021b0 <put_str>
c000448b:	c7 45 f4 6c 00 00 00 	movl   $0x6c,-0xc(%ebp)
c0004492:	8b 45 f4             	mov    -0xc(%ebp),%eax
c0004495:	89 44 24 08          	mov    %eax,0x8(%esp)
c0004499:	c7 44 24 04 00 00 00 	movl   $0x0,0x4(%esp)
c00044a0:	00 
c00044a1:	c7 04 24 40 83 00 c0 	movl   $0xc0008340,(%esp)
c00044a8:	e8 9a e9 ff ff       	call   c0002e47 <memset>
c00044ad:	c7 05 48 83 00 c0 10 	movl   $0x10,0xc0008348
c00044b4:	00 00 00 
c00044b7:	8b 45 f4             	mov    -0xc(%ebp),%eax
c00044ba:	a3 a8 83 00 c0       	mov    %eax,0xc00083a8
c00044bf:	bb 20 09 00 c0       	mov    $0xc0000920,%ebx
c00044c4:	8b 45 f4             	mov    -0xc(%ebp),%eax
c00044c7:	8d 50 ff             	lea    -0x1(%eax),%edx
c00044ca:	8d 45 e0             	lea    -0x20(%ebp),%eax
c00044cd:	c7 44 24 10 80 00 00 	movl   $0x80,0x10(%esp)
c00044d4:	00 
c00044d5:	c7 44 24 0c 89 00 00 	movl   $0x89,0xc(%esp)
c00044dc:	00 
c00044dd:	89 54 24 08          	mov    %edx,0x8(%esp)
c00044e1:	c7 44 24 04 40 83 00 	movl   $0xc0008340,0x4(%esp)
c00044e8:	c0 
c00044e9:	89 04 24             	mov    %eax,(%esp)
c00044ec:	e8 1d ff ff ff       	call   c000440e <make_gdt_desc>
c00044f1:	83 ec 04             	sub    $0x4,%esp
c00044f4:	8b 45 e0             	mov    -0x20(%ebp),%eax
c00044f7:	8b 55 e4             	mov    -0x1c(%ebp),%edx
c00044fa:	89 03                	mov    %eax,(%ebx)
c00044fc:	89 53 04             	mov    %edx,0x4(%ebx)
c00044ff:	bb 28 09 00 c0       	mov    $0xc0000928,%ebx
c0004504:	8d 45 e0             	lea    -0x20(%ebp),%eax
c0004507:	c7 44 24 10 c0 00 00 	movl   $0xc0,0x10(%esp)
c000450e:	00 
c000450f:	c7 44 24 0c f8 00 00 	movl   $0xf8,0xc(%esp)
c0004516:	00 
c0004517:	c7 44 24 08 ff ff 0f 	movl   $0xfffff,0x8(%esp)
c000451e:	00 
c000451f:	c7 44 24 04 00 00 00 	movl   $0x0,0x4(%esp)
c0004526:	00 
c0004527:	89 04 24             	mov    %eax,(%esp)
c000452a:	e8 df fe ff ff       	call   c000440e <make_gdt_desc>
c000452f:	83 ec 04             	sub    $0x4,%esp
c0004532:	8b 45 e0             	mov    -0x20(%ebp),%eax
c0004535:	8b 55 e4             	mov    -0x1c(%ebp),%edx
c0004538:	89 03                	mov    %eax,(%ebx)
c000453a:	89 53 04             	mov    %edx,0x4(%ebx)
c000453d:	bb 30 09 00 c0       	mov    $0xc0000930,%ebx
c0004542:	8d 45 e0             	lea    -0x20(%ebp),%eax
c0004545:	c7 44 24 10 c0 00 00 	movl   $0xc0,0x10(%esp)
c000454c:	00 
c000454d:	c7 44 24 0c f2 00 00 	movl   $0xf2,0xc(%esp)
c0004554:	00 
c0004555:	c7 44 24 08 ff ff 0f 	movl   $0xfffff,0x8(%esp)
c000455c:	00 
c000455d:	c7 44 24 04 00 00 00 	movl   $0x0,0x4(%esp)
c0004564:	00 
c0004565:	89 04 24             	mov    %eax,(%esp)
c0004568:	e8 a1 fe ff ff       	call   c000440e <make_gdt_desc>
c000456d:	83 ec 04             	sub    $0x4,%esp
c0004570:	8b 45 e0             	mov    -0x20(%ebp),%eax
c0004573:	8b 55 e4             	mov    -0x1c(%ebp),%edx
c0004576:	89 03                	mov    %eax,(%ebx)
c0004578:	89 53 04             	mov    %edx,0x4(%ebx)
c000457b:	c7 45 e8 37 00 00 09 	movl   $0x9000037,-0x18(%ebp)
c0004582:	c7 45 ec 00 c0 00 00 	movl   $0xc000,-0x14(%ebp)
c0004589:	0f 01 55 e8          	lgdtl  -0x18(%ebp)
c000458d:	b8 20 00 00 00       	mov    $0x20,%eax
c0004592:	0f 00 d8             	ltr    %ax
c0004595:	c7 04 24 1d 5c 00 c0 	movl   $0xc0005c1d,(%esp)
c000459c:	e8 0f dc ff ff       	call   c00021b0 <put_str>
c00045a1:	8b 5d fc             	mov    -0x4(%ebp),%ebx
c00045a4:	c9                   	leave  
c00045a5:	c3                   	ret    

c00045a6 <start_process>:
c00045a6:	55                   	push   %ebp
c00045a7:	89 e5                	mov    %esp,%ebp
c00045a9:	83 ec 28             	sub    $0x28,%esp
c00045ac:	8b 45 08             	mov    0x8(%ebp),%eax
c00045af:	89 45 f4             	mov    %eax,-0xc(%ebp)
c00045b2:	e8 e4 ec ff ff       	call   c000329b <running_thread>
c00045b7:	89 45 f0             	mov    %eax,-0x10(%ebp)
c00045ba:	8b 45 f0             	mov    -0x10(%ebp),%eax
c00045bd:	8b 00                	mov    (%eax),%eax
c00045bf:	8d 90 80 00 00 00    	lea    0x80(%eax),%edx
c00045c5:	8b 45 f0             	mov    -0x10(%ebp),%eax
c00045c8:	89 10                	mov    %edx,(%eax)
c00045ca:	8b 45 f0             	mov    -0x10(%ebp),%eax
c00045cd:	8b 00                	mov    (%eax),%eax
c00045cf:	89 45 ec             	mov    %eax,-0x14(%ebp)
c00045d2:	8b 45 ec             	mov    -0x14(%ebp),%eax
c00045d5:	c7 40 10 00 00 00 00 	movl   $0x0,0x10(%eax)
c00045dc:	8b 45 ec             	mov    -0x14(%ebp),%eax
c00045df:	8b 50 10             	mov    0x10(%eax),%edx
c00045e2:	8b 45 ec             	mov    -0x14(%ebp),%eax
c00045e5:	89 50 0c             	mov    %edx,0xc(%eax)
c00045e8:	8b 45 ec             	mov    -0x14(%ebp),%eax
c00045eb:	8b 50 0c             	mov    0xc(%eax),%edx
c00045ee:	8b 45 ec             	mov    -0x14(%ebp),%eax
c00045f1:	89 50 08             	mov    %edx,0x8(%eax)
c00045f4:	8b 45 ec             	mov    -0x14(%ebp),%eax
c00045f7:	8b 50 08             	mov    0x8(%eax),%edx
c00045fa:	8b 45 ec             	mov    -0x14(%ebp),%eax
c00045fd:	89 50 04             	mov    %edx,0x4(%eax)
c0004600:	8b 45 ec             	mov    -0x14(%ebp),%eax
c0004603:	c7 40 20 00 00 00 00 	movl   $0x0,0x20(%eax)
c000460a:	8b 45 ec             	mov    -0x14(%ebp),%eax
c000460d:	8b 50 20             	mov    0x20(%eax),%edx
c0004610:	8b 45 ec             	mov    -0x14(%ebp),%eax
c0004613:	89 50 1c             	mov    %edx,0x1c(%eax)
c0004616:	8b 45 ec             	mov    -0x14(%ebp),%eax
c0004619:	8b 50 1c             	mov    0x1c(%eax),%edx
c000461c:	8b 45 ec             	mov    -0x14(%ebp),%eax
c000461f:	89 50 18             	mov    %edx,0x18(%eax)
c0004622:	8b 45 ec             	mov    -0x14(%ebp),%eax
c0004625:	8b 50 18             	mov    0x18(%eax),%edx
c0004628:	8b 45 ec             	mov    -0x14(%ebp),%eax
c000462b:	89 50 14             	mov    %edx,0x14(%eax)
c000462e:	8b 45 ec             	mov    -0x14(%ebp),%eax
c0004631:	c7 40 24 00 00 00 00 	movl   $0x0,0x24(%eax)
c0004638:	8b 45 ec             	mov    -0x14(%ebp),%eax
c000463b:	c7 40 28 33 00 00 00 	movl   $0x33,0x28(%eax)
c0004642:	8b 45 ec             	mov    -0x14(%ebp),%eax
c0004645:	8b 50 28             	mov    0x28(%eax),%edx
c0004648:	8b 45 ec             	mov    -0x14(%ebp),%eax
c000464b:	89 50 2c             	mov    %edx,0x2c(%eax)
c000464e:	8b 45 ec             	mov    -0x14(%ebp),%eax
c0004651:	8b 50 2c             	mov    0x2c(%eax),%edx
c0004654:	8b 45 ec             	mov    -0x14(%ebp),%eax
c0004657:	89 50 30             	mov    %edx,0x30(%eax)
c000465a:	8b 55 f4             	mov    -0xc(%ebp),%edx
c000465d:	8b 45 ec             	mov    -0x14(%ebp),%eax
c0004660:	89 50 38             	mov    %edx,0x38(%eax)
c0004663:	8b 45 ec             	mov    -0x14(%ebp),%eax
c0004666:	c7 40 3c 2b 00 00 00 	movl   $0x2b,0x3c(%eax)
c000466d:	8b 45 ec             	mov    -0x14(%ebp),%eax
c0004670:	c7 40 40 02 02 00 00 	movl   $0x202,0x40(%eax)
c0004677:	c7 44 24 04 00 f0 ff 	movl   $0xbffff000,0x4(%esp)
c000467e:	bf 
c000467f:	c7 04 24 02 00 00 00 	movl   $0x2,(%esp)
c0004686:	e8 ac e1 ff ff       	call   c0002837 <get_a_page>
c000468b:	05 00 10 00 00       	add    $0x1000,%eax
c0004690:	89 c2                	mov    %eax,%edx
c0004692:	8b 45 ec             	mov    -0x14(%ebp),%eax
c0004695:	89 50 44             	mov    %edx,0x44(%eax)
c0004698:	8b 45 ec             	mov    -0x14(%ebp),%eax
c000469b:	c7 40 48 33 00 00 00 	movl   $0x33,0x48(%eax)
c00046a2:	8b 65 ec             	mov    -0x14(%ebp),%esp
c00046a5:	e9 c6 d5 ff ff       	jmp    c0001c70 <intr_exit>
c00046aa:	c9                   	leave  
c00046ab:	c3                   	ret    

c00046ac <page_dir_activate>:
c00046ac:	55                   	push   %ebp
c00046ad:	89 e5                	mov    %esp,%ebp
c00046af:	83 ec 28             	sub    $0x28,%esp
c00046b2:	c7 45 f4 00 00 10 00 	movl   $0x100000,-0xc(%ebp)
c00046b9:	8b 45 08             	mov    0x8(%ebp),%eax
c00046bc:	8b 40 30             	mov    0x30(%eax),%eax
c00046bf:	85 c0                	test   %eax,%eax
c00046c1:	74 11                	je     c00046d4 <page_dir_activate+0x28>
c00046c3:	8b 45 08             	mov    0x8(%ebp),%eax
c00046c6:	8b 40 30             	mov    0x30(%eax),%eax
c00046c9:	89 04 24             	mov    %eax,(%esp)
c00046cc:	e8 e2 e2 ff ff       	call   c00029b3 <addr_v2p>
c00046d1:	89 45 f4             	mov    %eax,-0xc(%ebp)
c00046d4:	8b 45 f4             	mov    -0xc(%ebp),%eax
c00046d7:	0f 22 d8             	mov    %eax,%cr3
c00046da:	c9                   	leave  
c00046db:	c3                   	ret    

c00046dc <process_activate>:
c00046dc:	55                   	push   %ebp
c00046dd:	89 e5                	mov    %esp,%ebp
c00046df:	83 ec 18             	sub    $0x18,%esp
c00046e2:	83 7d 08 00          	cmpl   $0x0,0x8(%ebp)
c00046e6:	75 24                	jne    c000470c <process_activate+0x30>
c00046e8:	c7 44 24 0c 34 5c 00 	movl   $0xc0005c34,0xc(%esp)
c00046ef:	c0 
c00046f0:	c7 44 24 08 00 5d 00 	movl   $0xc0005d00,0x8(%esp)
c00046f7:	c0 
c00046f8:	c7 44 24 04 34 00 00 	movl   $0x34,0x4(%esp)
c00046ff:	00 
c0004700:	c7 04 24 45 5c 00 c0 	movl   $0xc0005c45,(%esp)
c0004707:	e8 16 dc ff ff       	call   c0002322 <panic_spin>
c000470c:	8b 45 08             	mov    0x8(%ebp),%eax
c000470f:	89 04 24             	mov    %eax,(%esp)
c0004712:	e8 95 ff ff ff       	call   c00046ac <page_dir_activate>
c0004717:	8b 45 08             	mov    0x8(%ebp),%eax
c000471a:	8b 40 30             	mov    0x30(%eax),%eax
c000471d:	85 c0                	test   %eax,%eax
c000471f:	74 0b                	je     c000472c <process_activate+0x50>
c0004721:	8b 45 08             	mov    0x8(%ebp),%eax
c0004724:	89 04 24             	mov    %eax,(%esp)
c0004727:	e8 d0 fc ff ff       	call   c00043fc <update_tss_esp>
c000472c:	c9                   	leave  
c000472d:	c3                   	ret    

c000472e <create_page_dir>:
c000472e:	55                   	push   %ebp
c000472f:	89 e5                	mov    %esp,%ebp
c0004731:	83 ec 28             	sub    $0x28,%esp
c0004734:	c7 04 24 01 00 00 00 	movl   $0x1,(%esp)
c000473b:	e8 45 e0 ff ff       	call   c0002785 <get_kernel_pages>
c0004740:	89 45 f4             	mov    %eax,-0xc(%ebp)
c0004743:	83 7d f4 00          	cmpl   $0x0,-0xc(%ebp)
c0004747:	75 13                	jne    c000475c <create_page_dir+0x2e>
c0004749:	c7 04 24 58 5c 00 c0 	movl   $0xc0005c58,(%esp)
c0004750:	e8 1c f3 ff ff       	call   c0003a71 <console_put_str>
c0004755:	b8 00 00 00 00       	mov    $0x0,%eax
c000475a:	eb 41                	jmp    c000479d <create_page_dir+0x6f>
c000475c:	8b 45 f4             	mov    -0xc(%ebp),%eax
c000475f:	05 00 0c 00 00       	add    $0xc00,%eax
c0004764:	c7 44 24 08 00 04 00 	movl   $0x400,0x8(%esp)
c000476b:	00 
c000476c:	c7 44 24 04 00 fc ff 	movl   $0xfffffc00,0x4(%esp)
c0004773:	ff 
c0004774:	89 04 24             	mov    %eax,(%esp)
c0004777:	e8 27 e7 ff ff       	call   c0002ea3 <memcpy>
c000477c:	8b 45 f4             	mov    -0xc(%ebp),%eax
c000477f:	89 04 24             	mov    %eax,(%esp)
c0004782:	e8 2c e2 ff ff       	call   c00029b3 <addr_v2p>
c0004787:	89 45 f0             	mov    %eax,-0x10(%ebp)
c000478a:	8b 45 f4             	mov    -0xc(%ebp),%eax
c000478d:	05 fc 0f 00 00       	add    $0xffc,%eax
c0004792:	8b 55 f0             	mov    -0x10(%ebp),%edx
c0004795:	83 ca 07             	or     $0x7,%edx
c0004798:	89 10                	mov    %edx,(%eax)
c000479a:	8b 45 f4             	mov    -0xc(%ebp),%eax
c000479d:	c9                   	leave  
c000479e:	c3                   	ret    

c000479f <create_user_vaddr_bitmap>:
c000479f:	55                   	push   %ebp
c00047a0:	89 e5                	mov    %esp,%ebp
c00047a2:	83 ec 28             	sub    $0x28,%esp
c00047a5:	8b 45 08             	mov    0x8(%ebp),%eax
c00047a8:	c7 40 3c 00 80 04 08 	movl   $0x8048000,0x3c(%eax)
c00047af:	c7 45 f4 17 00 00 00 	movl   $0x17,-0xc(%ebp)
c00047b6:	8b 45 f4             	mov    -0xc(%ebp),%eax
c00047b9:	89 04 24             	mov    %eax,(%esp)
c00047bc:	e8 c4 df ff ff       	call   c0002785 <get_kernel_pages>
c00047c1:	8b 55 08             	mov    0x8(%ebp),%edx
c00047c4:	89 42 38             	mov    %eax,0x38(%edx)
c00047c7:	8b 45 08             	mov    0x8(%ebp),%eax
c00047ca:	c7 40 34 f7 6f 01 00 	movl   $0x16ff7,0x34(%eax)
c00047d1:	8b 45 08             	mov    0x8(%ebp),%eax
c00047d4:	83 c0 34             	add    $0x34,%eax
c00047d7:	89 04 24             	mov    %eax,(%esp)
c00047da:	e8 f9 e3 ff ff       	call   c0002bd8 <bitmap_init>
c00047df:	c9                   	leave  
c00047e0:	c3                   	ret    

c00047e1 <process_execute>:
c00047e1:	55                   	push   %ebp
c00047e2:	89 e5                	mov    %esp,%ebp
c00047e4:	83 ec 28             	sub    $0x28,%esp
c00047e7:	c7 04 24 01 00 00 00 	movl   $0x1,(%esp)
c00047ee:	e8 92 df ff ff       	call   c0002785 <get_kernel_pages>
c00047f3:	89 45 f4             	mov    %eax,-0xc(%ebp)
c00047f6:	c7 44 24 08 1f 00 00 	movl   $0x1f,0x8(%esp)
c00047fd:	00 
c00047fe:	8b 45 0c             	mov    0xc(%ebp),%eax
c0004801:	89 44 24 04          	mov    %eax,0x4(%esp)
c0004805:	8b 45 f4             	mov    -0xc(%ebp),%eax
c0004808:	89 04 24             	mov    %eax,(%esp)
c000480b:	e8 33 eb ff ff       	call   c0003343 <init_thread>
c0004810:	8b 45 f4             	mov    -0xc(%ebp),%eax
c0004813:	89 04 24             	mov    %eax,(%esp)
c0004816:	e8 84 ff ff ff       	call   c000479f <create_user_vaddr_bitmap>
c000481b:	8b 45 08             	mov    0x8(%ebp),%eax
c000481e:	89 44 24 08          	mov    %eax,0x8(%esp)
c0004822:	c7 44 24 04 a6 45 00 	movl   $0xc00045a6,0x4(%esp)
c0004829:	c0 
c000482a:	8b 45 f4             	mov    -0xc(%ebp),%eax
c000482d:	89 04 24             	mov    %eax,(%esp)
c0004830:	e8 98 ea ff ff       	call   c00032cd <thread_create>
c0004835:	e8 f4 fe ff ff       	call   c000472e <create_page_dir>
c000483a:	8b 55 f4             	mov    -0xc(%ebp),%edx
c000483d:	89 42 30             	mov    %eax,0x30(%edx)
c0004840:	e8 a1 d1 ff ff       	call   c00019e6 <intr_disable>
c0004845:	89 45 f0             	mov    %eax,-0x10(%ebp)
c0004848:	8b 45 f4             	mov    -0xc(%ebp),%eax
c000484b:	83 c0 20             	add    $0x20,%eax
c000484e:	89 44 24 04          	mov    %eax,0x4(%esp)
c0004852:	c7 04 24 cc 85 00 c0 	movl   $0xc00085cc,(%esp)
c0004859:	e8 da f0 ff ff       	call   c0003938 <elem_find>
c000485e:	85 c0                	test   %eax,%eax
c0004860:	74 24                	je     c0004886 <process_execute+0xa5>
c0004862:	c7 44 24 0c 84 5c 00 	movl   $0xc0005c84,0xc(%esp)
c0004869:	c0 
c000486a:	c7 44 24 08 f0 5c 00 	movl   $0xc0005cf0,0x8(%esp)
c0004871:	c0 
c0004872:	c7 44 24 04 6a 00 00 	movl   $0x6a,0x4(%esp)
c0004879:	00 
c000487a:	c7 04 24 45 5c 00 c0 	movl   $0xc0005c45,(%esp)
c0004881:	e8 9c da ff ff       	call   c0002322 <panic_spin>
c0004886:	8b 45 f4             	mov    -0xc(%ebp),%eax
c0004889:	83 c0 20             	add    $0x20,%eax
c000488c:	89 44 24 04          	mov    %eax,0x4(%esp)
c0004890:	c7 04 24 cc 85 00 c0 	movl   $0xc00085cc,(%esp)
c0004897:	e8 2a f0 ff ff       	call   c00038c6 <list_append>
c000489c:	8b 45 f4             	mov    -0xc(%ebp),%eax
c000489f:	83 c0 28             	add    $0x28,%eax
c00048a2:	89 44 24 04          	mov    %eax,0x4(%esp)
c00048a6:	c7 04 24 dc 85 00 c0 	movl   $0xc00085dc,(%esp)
c00048ad:	e8 86 f0 ff ff       	call   c0003938 <elem_find>
c00048b2:	85 c0                	test   %eax,%eax
c00048b4:	74 24                	je     c00048da <process_execute+0xf9>
c00048b6:	c7 44 24 0c bc 5c 00 	movl   $0xc0005cbc,0xc(%esp)
c00048bd:	c0 
c00048be:	c7 44 24 08 f0 5c 00 	movl   $0xc0005cf0,0x8(%esp)
c00048c5:	c0 
c00048c6:	c7 44 24 04 6d 00 00 	movl   $0x6d,0x4(%esp)
c00048cd:	00 
c00048ce:	c7 04 24 45 5c 00 c0 	movl   $0xc0005c45,(%esp)
c00048d5:	e8 48 da ff ff       	call   c0002322 <panic_spin>
c00048da:	8b 45 f4             	mov    -0xc(%ebp),%eax
c00048dd:	83 c0 28             	add    $0x28,%eax
c00048e0:	89 44 24 04          	mov    %eax,0x4(%esp)
c00048e4:	c7 04 24 dc 85 00 c0 	movl   $0xc00085dc,(%esp)
c00048eb:	e8 d6 ef ff ff       	call   c00038c6 <list_append>
c00048f0:	8b 45 f0             	mov    -0x10(%ebp),%eax
c00048f3:	89 04 24             	mov    %eax,(%esp)
c00048f6:	e8 14 d1 ff ff       	call   c0001a0f <intr_set_status>
c00048fb:	c9                   	leave  
c00048fc:	c3                   	ret    
